---
triple:          'arm64-apple-darwin'
binary-path:     chess-engine
relocations:
  - { offsetInCU: 0x3B, offset: 0x3B, size: 0x8, addend: 0x0, symName: _.str, symObjAddr: 0x89A0, symBinAddr: 0x1000A27A0, symSize: 0x0 }
  - { offsetInCU: 0x6B, offset: 0x6B, size: 0x8, addend: 0x0, symName: _.str.1, symObjAddr: 0x89C0, symBinAddr: 0x1000A27C0, symSize: 0x0 }
  - { offsetInCU: 0x88, offset: 0x88, size: 0x8, addend: 0x0, symName: _.str.2, symObjAddr: 0x89E0, symBinAddr: 0x1000A27E0, symSize: 0x0 }
  - { offsetInCU: 0x99, offset: 0x99, size: 0x8, addend: 0x0, symName: _.str.3, symObjAddr: 0x8A00, symBinAddr: 0x1000A2800, symSize: 0x0 }
  - { offsetInCU: 0xAA, offset: 0xAA, size: 0x8, addend: 0x0, symName: _.str.4, symObjAddr: 0x8A20, symBinAddr: 0x1000A2820, symSize: 0x0 }
  - { offsetInCU: 0xC7, offset: 0xC7, size: 0x8, addend: 0x0, symName: _.str.5, symObjAddr: 0x8A60, symBinAddr: 0x1000A2860, symSize: 0x0 }
  - { offsetInCU: 0xE4, offset: 0xE4, size: 0x8, addend: 0x0, symName: _.str.6, symObjAddr: 0x8A80, symBinAddr: 0x1000A2880, symSize: 0x0 }
  - { offsetInCU: 0x101, offset: 0x101, size: 0x8, addend: 0x0, symName: _.str.7, symObjAddr: 0x8AC0, symBinAddr: 0x1000A28C0, symSize: 0x0 }
  - { offsetInCU: 0x11E, offset: 0x11E, size: 0x8, addend: 0x0, symName: _.str.8, symObjAddr: 0x8B00, symBinAddr: 0x1000A2900, symSize: 0x0 }
  - { offsetInCU: 0x12F, offset: 0x12F, size: 0x8, addend: 0x0, symName: _.str.9, symObjAddr: 0x8B40, symBinAddr: 0x1000A2940, symSize: 0x0 }
  - { offsetInCU: 0x140, offset: 0x140, size: 0x8, addend: 0x0, symName: _.str.10, symObjAddr: 0x8B80, symBinAddr: 0x1000A2980, symSize: 0x0 }
  - { offsetInCU: 0x151, offset: 0x151, size: 0x8, addend: 0x0, symName: _.str.11, symObjAddr: 0x8BC0, symBinAddr: 0x1000A29C0, symSize: 0x0 }
  - { offsetInCU: 0x162, offset: 0x162, size: 0x8, addend: 0x0, symName: _.str.12, symObjAddr: 0x8C00, symBinAddr: 0x1000A2A00, symSize: 0x0 }
  - { offsetInCU: 0x17F, offset: 0x17F, size: 0x8, addend: 0x0, symName: _.str.13, symObjAddr: 0x8C60, symBinAddr: 0x1000A2A60, symSize: 0x0 }
  - { offsetInCU: 0x190, offset: 0x190, size: 0x8, addend: 0x0, symName: _.str.14, symObjAddr: 0x8CC0, symBinAddr: 0x1000A2AC0, symSize: 0x0 }
  - { offsetInCU: 0x1AD, offset: 0x1AD, size: 0x8, addend: 0x0, symName: _.str.15, symObjAddr: 0x8D00, symBinAddr: 0x1000A2B00, symSize: 0x0 }
  - { offsetInCU: 0x1CA, offset: 0x1CA, size: 0x8, addend: 0x0, symName: _.str.16, symObjAddr: 0x8D20, symBinAddr: 0x1000A2B20, symSize: 0x0 }
  - { offsetInCU: 0x1E7, offset: 0x1E7, size: 0x8, addend: 0x0, symName: _.str.17, symObjAddr: 0x8D40, symBinAddr: 0x1000A2B40, symSize: 0x0 }
  - { offsetInCU: 0x204, offset: 0x204, size: 0x8, addend: 0x0, symName: _.str.18, symObjAddr: 0x8D80, symBinAddr: 0x1000A2B80, symSize: 0x0 }
  - { offsetInCU: 0x221, offset: 0x221, size: 0x8, addend: 0x0, symName: _.str.19, symObjAddr: 0x8DC0, symBinAddr: 0x1000A2BC0, symSize: 0x0 }
  - { offsetInCU: 0x23F, offset: 0x23F, size: 0x8, addend: 0x0, symName: _.str.20, symObjAddr: 0x8DE0, symBinAddr: 0x1000A2BE0, symSize: 0x0 }
  - { offsetInCU: 0x592C, offset: 0x592C, size: 0x8, addend: 0x0, symName: __ZNSt3__124__put_character_sequenceB7v160006IcNS_11char_traitsIcEEEERNS_13basic_ostreamIT_T0_EES7_PKS4_m, symObjAddr: 0x3868, symBinAddr: 0x100004EEC, symSize: 0x744 }
  - { offsetInCU: 0x7495, offset: 0x7495, size: 0x8, addend: 0x0, symName: __ZNSt3__1lsB7v160006IcNS_11char_traitsIcEENS_9allocatorIcEEEERNS_13basic_ostreamIT_T0_EES9_RKNS_12basic_stringIS6_S7_T1_EE, symObjAddr: 0x2F0, symBinAddr: 0x100001974, symSize: 0x4C }
  - { offsetInCU: 0x74ED, offset: 0x74ED, size: 0x8, addend: 0x0, symName: __ZNSt3__14endlB7v160006IcNS_11char_traitsIcEEEERNS_13basic_ostreamIT_T0_EES7_, symObjAddr: 0x368, symBinAddr: 0x1000019EC, symSize: 0xD4 }
  - { offsetInCU: 0x752D, offset: 0x752D, size: 0x8, addend: 0x0, symName: __ZNSt3__1lsB7v160006INS_11char_traitsIcEEEERNS_13basic_ostreamIcT_EES6_PKc, symObjAddr: 0x2064, symBinAddr: 0x1000036E8, symSize: 0x48 }
  - { offsetInCU: 0x7573, offset: 0x7573, size: 0x8, addend: 0x0, symName: __ZNSt3__1eqB7v160006IcNS_11char_traitsIcEENS_9allocatorIcEEEEbRKNS_12basic_stringIT_T0_T1_EEPKS6_, symObjAddr: 0x20E0, symBinAddr: 0x100003764, symSize: 0xC8 }
  - { offsetInCU: 0x75DA, offset: 0x75DA, size: 0x8, addend: 0x0, symName: __ZNSt3__17getlineB7v160006IcNS_11char_traitsIcEENS_9allocatorIcEEEERNS_13basic_istreamIT_T0_EES9_RNS_12basic_stringIS6_S7_T1_EE, symObjAddr: 0x22E8, symBinAddr: 0x10000396C, symSize: 0xD8 }
  - { offsetInCU: 0x7632, offset: 0x7632, size: 0x8, addend: 0x0, symName: __ZNSt3__1eqB7v160006IPN3thc4MoveEEEbRKNS_11__wrap_iterIT_EES8_, symObjAddr: 0x2410, symBinAddr: 0x100003A94, symSize: 0x48 }
  - { offsetInCU: 0x7675, offset: 0x7675, size: 0x8, addend: 0x0, symName: __ZNSt3__14findB7v160006INS_11__wrap_iterIPN3thc4MoveEEES3_EET_S6_S6_RKT0_, symObjAddr: 0x2458, symBinAddr: 0x100003ADC, symSize: 0x328 }
  - { offsetInCU: 0x76D8, offset: 0x76D8, size: 0x8, addend: 0x0, symName: __ZNSt3__119__debug_db_insert_cB7v160006INS_12basic_stringIcNS_11char_traitsIcEENS_9allocatorIcEEEEEEvPT_, symObjAddr: 0x376C, symBinAddr: 0x100004DF0, symSize: 0x10 }
  - { offsetInCU: 0x7709, offset: 0x7709, size: 0x8, addend: 0x0, symName: __ZNSt3__118__constexpr_strlenB7v160006EPKc, symObjAddr: 0x3838, symBinAddr: 0x100004EBC, symSize: 0x24 }
  - { offsetInCU: 0x7735, offset: 0x7735, size: 0x8, addend: 0x0, symName: __ZNSt3__116__pad_and_outputB7v160006IcNS_11char_traitsIcEEEENS_19ostreambuf_iteratorIT_T0_EES6_PKS4_S8_S8_RNS_8ios_baseES4_, symObjAddr: 0x40B0, symBinAddr: 0x100005734, symSize: 0x760 }
  - { offsetInCU: 0x7812, offset: 0x7812, size: 0x8, addend: 0x0, symName: __ZNSt3__112__to_addressB7v160006IcEEPT_S2_, symObjAddr: 0x4F54, symBinAddr: 0x1000065D8, symSize: 0x14 }
  - { offsetInCU: 0x787A, offset: 0x787A, size: 0x8, addend: 0x0, symName: __ZNSt3__19use_facetB7v160006INS_5ctypeIcEEEERKT_RKNS_6localeE, symObjAddr: 0x55E0, symBinAddr: 0x100006C64, symSize: 0x2C }
  - { offsetInCU: 0x7D49, offset: 0x7D49, size: 0x8, addend: 0x0, symName: __ZNSt3__112__to_addressB7v160006IKcEEPT_S3_, symObjAddr: 0x5764, symBinAddr: 0x100006DE8, symSize: 0x14 }
  - { offsetInCU: 0x7DB1, offset: 0x7DB1, size: 0x8, addend: 0x0, symName: __ZNSt3__17getlineB7v160006IcNS_11char_traitsIcEENS_9allocatorIcEEEERNS_13basic_istreamIT_T0_EES9_RNS_12basic_stringIS6_S7_T1_EES6_, symObjAddr: 0x5DC4, symBinAddr: 0x100007448, symSize: 0x688 }
  - { offsetInCU: 0x840C, offset: 0x840C, size: 0x8, addend: 0x0, symName: __ZNSt3__125__debug_db_invalidate_allB7v160006INS_12basic_stringIcNS_11char_traitsIcEENS_9allocatorIcEEEEEEvPT_, symObjAddr: 0x6C80, symBinAddr: 0x100008304, symSize: 0x10 }
  - { offsetInCU: 0x8629, offset: 0x8629, size: 0x8, addend: 0x0, symName: __ZNSt3__119__debug_db_insert_cB7v160006INS_6vectorIN3thc4MoveENS_9allocatorIS3_EEEEEEvPT_, symObjAddr: 0x73B4, symBinAddr: 0x100008A38, symSize: 0x10 }
  - { offsetInCU: 0x865A, offset: 0x865A, size: 0x8, addend: 0x0, symName: __ZNSt3__118__debug_db_erase_cB7v160006INS_6vectorIN3thc4MoveENS_9allocatorIS3_EEEEEEvPT_, symObjAddr: 0x7AA0, symBinAddr: 0x100009124, symSize: 0x10 }
  - { offsetInCU: 0x868B, offset: 0x868B, size: 0x8, addend: 0x0, symName: __ZNSt3__112__to_addressB7v160006IN3thc4MoveEEEPT_S4_, symObjAddr: 0x7D98, symBinAddr: 0x10000941C, symSize: 0x14 }
  - { offsetInCU: 0x86C0, offset: 0x86C0, size: 0x8, addend: 0x0, symName: __ZNSt3__119__libcpp_deallocateB7v160006EPvmm, symObjAddr: 0x7F4C, symBinAddr: 0x1000095D0, symSize: 0x60 }
  - { offsetInCU: 0x8725, offset: 0x8725, size: 0x8, addend: 0x0, symName: __ZNSt3__124__is_overaligned_for_newB7v160006Em, symObjAddr: 0x7FAC, symBinAddr: 0x100009630, symSize: 0x20 }
  - { offsetInCU: 0x8753, offset: 0x8753, size: 0x8, addend: 0x0, symName: __ZNSt3__127__do_deallocate_handle_sizeB7v160006IJSt11align_val_tEEEvPvmDpT_, symObjAddr: 0x7FCC, symBinAddr: 0x100009650, symSize: 0x30 }
  - { offsetInCU: 0x87A6, offset: 0x87A6, size: 0x8, addend: 0x0, symName: __ZNSt3__127__do_deallocate_handle_sizeB7v160006IJEEEvPvmDpT_, symObjAddr: 0x7FFC, symBinAddr: 0x100009680, symSize: 0x28 }
  - { offsetInCU: 0x87E4, offset: 0x87E4, size: 0x8, addend: 0x0, symName: __ZNSt3__124__libcpp_operator_deleteB7v160006IJPvSt11align_val_tEEEvDpT_, symObjAddr: 0x8024, symBinAddr: 0x1000096A8, symSize: 0x2C }
  - { offsetInCU: 0x882D, offset: 0x882D, size: 0x8, addend: 0x0, symName: __ZNSt3__124__libcpp_operator_deleteB7v160006IJPvEEEvDpT_, symObjAddr: 0x8050, symBinAddr: 0x1000096D4, symSize: 0x24 }
  - { offsetInCU: 0x8862, offset: 0x8862, size: 0x8, addend: 0x0, symName: __ZNSt3__1neB7v160006IPN3thc4MoveEEEbRKNS_11__wrap_iterIT_EES8_, symObjAddr: 0x83BC, symBinAddr: 0x100009A40, symSize: 0x34 }
  - { offsetInCU: 0xB12C, offset: 0xB12C, size: 0x8, addend: 0x0, symName: __Z11print_boardRN3thc10ChessRulesE, symObjAddr: 0x0, symBinAddr: 0x100001684, symSize: 0x2F0 }
  - { offsetInCU: 0xB156, offset: 0xB156, size: 0x8, addend: 0x0, symName: __ZNSt3__113basic_ostreamIcNS_11char_traitsIcEEElsB7v160006EPFRS3_S4_E, symObjAddr: 0x33C, symBinAddr: 0x1000019C0, symSize: 0x2C }
  - { offsetInCU: 0xB18A, offset: 0xB18A, size: 0x8, addend: 0x0, symName: _main, symObjAddr: 0x43C, symBinAddr: 0x100001AC0, symSize: 0x1C28 }
  - { offsetInCU: 0xB355, offset: 0xB355, size: 0x8, addend: 0x0, symName: __ZNSt3__112basic_stringIcNS_11char_traitsIcEENS_9allocatorIcEEEC1B7v160006IDnEEPKc, symObjAddr: 0x20AC, symBinAddr: 0x100003730, symSize: 0x34 }
  - { offsetInCU: 0xB393, offset: 0xB393, size: 0x8, addend: 0x0, symName: __ZN3thc10ChessRulesC1Ev, symObjAddr: 0x21A8, symBinAddr: 0x10000382C, symSize: 0x2C }
  - { offsetInCU: 0xB3BD, offset: 0xB3BD, size: 0x8, addend: 0x0, symName: __ZN3thc10ChessRules7ForsythEPKc, symObjAddr: 0x21D4, symBinAddr: 0x100003858, symSize: 0x5C }
  - { offsetInCU: 0xB401, offset: 0xB401, size: 0x8, addend: 0x0, symName: __ZNK3thc13ChessPosition11WhiteToPlayEv, symObjAddr: 0x2230, symBinAddr: 0x1000038B4, symSize: 0x8C }
  - { offsetInCU: 0xB427, offset: 0xB427, size: 0x8, addend: 0x0, symName: __ZNSt3__112basic_stringIcNS_11char_traitsIcEENS_9allocatorIcEEEC1B7v160006Ev, symObjAddr: 0x22BC, symBinAddr: 0x100003940, symSize: 0x2C }
  - { offsetInCU: 0xB451, offset: 0xB451, size: 0x8, addend: 0x0, symName: __ZNKSt3__112basic_stringIcNS_11char_traitsIcEENS_9allocatorIcEEE5c_strB7v160006Ev, symObjAddr: 0x23C0, symBinAddr: 0x100003A44, symSize: 0x24 }
  - { offsetInCU: 0xB477, offset: 0xB477, size: 0x8, addend: 0x0, symName: __ZNSt3__16vectorIN3thc4MoveENS_9allocatorIS2_EEEC1B7v160006Ev, symObjAddr: 0x23E4, symBinAddr: 0x100003A68, symSize: 0x2C }
  - { offsetInCU: 0xB4A1, offset: 0xB4A1, size: 0x8, addend: 0x0, symName: __ZNSt3__16vectorIN3thc4MoveENS_9allocatorIS2_EEE5beginB7v160006Ev, symObjAddr: 0x2780, symBinAddr: 0x100003E04, symSize: 0x268 }
  - { offsetInCU: 0xB4CA, offset: 0xB4CA, size: 0x8, addend: 0x0, symName: __ZNSt3__16vectorIN3thc4MoveENS_9allocatorIS2_EEE3endB7v160006Ev, symObjAddr: 0x29E8, symBinAddr: 0x10000406C, symSize: 0x26C }
  - { offsetInCU: 0xB4F3, offset: 0xB4F3, size: 0x8, addend: 0x0, symName: __ZNSt3__16vectorIN3thc4MoveENS_9allocatorIS2_EEED1B7v160006Ev, symObjAddr: 0x2C54, symBinAddr: 0x1000042D8, symSize: 0x2C }
  - { offsetInCU: 0xB51D, offset: 0xB51D, size: 0x8, addend: 0x0, symName: __ZN3thc10ChessRulesD1Ev, symObjAddr: 0x2C80, symBinAddr: 0x100004304, symSize: 0x2C }
  - { offsetInCU: 0xB54A, offset: 0xB54A, size: 0x8, addend: 0x0, symName: __ZN3thc10ChessRulesC2Ev, symObjAddr: 0x2CAC, symBinAddr: 0x100004330, symSize: 0xB4 }
  - { offsetInCU: 0xB574, offset: 0xB574, size: 0x8, addend: 0x0, symName: __ZN3thc13ChessPositionC2Ev, symObjAddr: 0x2D60, symBinAddr: 0x1000043E4, symSize: 0x7C }
  - { offsetInCU: 0xB59E, offset: 0xB59E, size: 0x8, addend: 0x0, symName: __ZN3thc10ChessRules4InitEv, symObjAddr: 0x2DDC, symBinAddr: 0x100004460, symSize: 0x1CC }
  - { offsetInCU: 0xB5C4, offset: 0xB5C4, size: 0x8, addend: 0x0, symName: __ZN3thc13ChessPositionD2Ev, symObjAddr: 0x2FA8, symBinAddr: 0x10000462C, symSize: 0x14 }
  - { offsetInCU: 0xB5EE, offset: 0xB5EE, size: 0x8, addend: 0x0, symName: __ZN3thc10ChessRulesD0Ev, symObjAddr: 0x2FBC, symBinAddr: 0x100004640, symSize: 0x30 }
  - { offsetInCU: 0xB61B, offset: 0xB61B, size: 0x8, addend: 0x0, symName: __ZN3thc13ChessPosition4InitEv, symObjAddr: 0x2FEC, symBinAddr: 0x100004670, symSize: 0x460 }
  - { offsetInCU: 0xB641, offset: 0xB641, size: 0x8, addend: 0x0, symName: __ZNKSt3__111__wrap_iterIPN3thc4MoveEE4baseB7v160006Ev, symObjAddr: 0x344C, symBinAddr: 0x100004AD0, symSize: 0x60 }
  - { offsetInCU: 0xB667, offset: 0xB667, size: 0x8, addend: 0x0, symName: __ZN3thc10ChessRulesD2Ev, symObjAddr: 0x34AC, symBinAddr: 0x100004B30, symSize: 0x2C }
  - { offsetInCU: 0xB694, offset: 0xB694, size: 0x8, addend: 0x0, symName: __ZNSt3__112basic_stringIcNS_11char_traitsIcEENS_9allocatorIcEEEC2B7v160006IDnEEPKc, symObjAddr: 0x34D8, symBinAddr: 0x100004B5C, symSize: 0x218 }
  - { offsetInCU: 0xB6D9, offset: 0xB6D9, size: 0x8, addend: 0x0, symName: __ZNSt3__117__compressed_pairINS_12basic_stringIcNS_11char_traitsIcEENS_9allocatorIcEEE5__repES5_EC1B7v160006INS_18__default_init_tagESA_EEOT_OT0_, symObjAddr: 0x36F0, symBinAddr: 0x100004D74, symSize: 0x3C }
  - { offsetInCU: 0xB731, offset: 0xB731, size: 0x8, addend: 0x0, symName: __ZNSt3__111char_traitsIcE6lengthEPKc, symObjAddr: 0x372C, symBinAddr: 0x100004DB0, symSize: 0x40 }
  - { offsetInCU: 0xB754, offset: 0xB754, size: 0x8, addend: 0x0, symName: __ZNSt3__117__compressed_pairINS_12basic_stringIcNS_11char_traitsIcEENS_9allocatorIcEEE5__repES5_EC2B7v160006INS_18__default_init_tagESA_EEOT_OT0_, symObjAddr: 0x377C, symBinAddr: 0x100004E00, symSize: 0x3C }
  - { offsetInCU: 0xB7AC, offset: 0xB7AC, size: 0x8, addend: 0x0, symName: __ZNSt3__122__compressed_pair_elemINS_12basic_stringIcNS_11char_traitsIcEENS_9allocatorIcEEE5__repELi0ELb0EEC2B7v160006ENS_18__default_init_tagE, symObjAddr: 0x37B8, symBinAddr: 0x100004E3C, symSize: 0x14 }
  - { offsetInCU: 0xB7E1, offset: 0xB7E1, size: 0x8, addend: 0x0, symName: __ZNSt3__122__compressed_pair_elemINS_9allocatorIcEELi1ELb1EEC2B7v160006ENS_18__default_init_tagE, symObjAddr: 0x37CC, symBinAddr: 0x100004E50, symSize: 0x2C }
  - { offsetInCU: 0xB816, offset: 0xB816, size: 0x8, addend: 0x0, symName: __ZNSt3__19allocatorIcEC2B7v160006Ev, symObjAddr: 0x37F8, symBinAddr: 0x100004E7C, symSize: 0x2C }
  - { offsetInCU: 0xB840, offset: 0xB840, size: 0x8, addend: 0x0, symName: __ZNSt3__116__non_trivial_ifILb1ENS_9allocatorIcEEEC2B7v160006Ev, symObjAddr: 0x3824, symBinAddr: 0x100004EA8, symSize: 0x14 }
  - { offsetInCU: 0xB86A, offset: 0xB86A, size: 0x8, addend: 0x0, symName: __ZNKSt3__112basic_stringIcNS_11char_traitsIcEENS_9allocatorIcEEE4dataB7v160006Ev, symObjAddr: 0x3FAC, symBinAddr: 0x100005630, symSize: 0x28 }
  - { offsetInCU: 0xB890, offset: 0xB890, size: 0x8, addend: 0x0, symName: __ZNKSt3__112basic_stringIcNS_11char_traitsIcEENS_9allocatorIcEEE4sizeB7v160006Ev, symObjAddr: 0x3FD4, symBinAddr: 0x100005658, symSize: 0x54 }
  - { offsetInCU: 0xB8D4, offset: 0xB8D4, size: 0x8, addend: 0x0, symName: __ZNKSt3__113basic_ostreamIcNS_11char_traitsIcEEE6sentrycvbB7v160006Ev, symObjAddr: 0x4028, symBinAddr: 0x1000056AC, symSize: 0x88 }
  - { offsetInCU: 0xB8FA, offset: 0xB8FA, size: 0x8, addend: 0x0, symName: __ZNSt3__119ostreambuf_iteratorIcNS_11char_traitsIcEEEC1B7v160006ERNS_13basic_ostreamIcS2_EE, symObjAddr: 0x4810, symBinAddr: 0x100005E94, symSize: 0x34 }
  - { offsetInCU: 0xB932, offset: 0xB932, size: 0x8, addend: 0x0, symName: __ZNKSt3__18ios_base5flagsB7v160006Ev, symObjAddr: 0x4844, symBinAddr: 0x100005EC8, symSize: 0x8C }
  - { offsetInCU: 0xB95A, offset: 0xB95A, size: 0x8, addend: 0x0, symName: __ZNKSt3__19basic_iosIcNS_11char_traitsIcEEE4fillB7v160006Ev, symObjAddr: 0x48D0, symBinAddr: 0x100005F54, symSize: 0x198 }
  - { offsetInCU: 0xB982, offset: 0xB982, size: 0x8, addend: 0x0, symName: __ZNKSt3__119ostreambuf_iteratorIcNS_11char_traitsIcEEE6failedB7v160006Ev, symObjAddr: 0x4A68, symBinAddr: 0x1000060EC, symSize: 0x6C }
  - { offsetInCU: 0xB9A8, offset: 0xB9A8, size: 0x8, addend: 0x0, symName: __ZNSt3__19basic_iosIcNS_11char_traitsIcEEE8setstateB7v160006Ej, symObjAddr: 0x4AD4, symBinAddr: 0x100006158, symSize: 0x2C }
  - { offsetInCU: 0xB9DD, offset: 0xB9DD, size: 0x8, addend: 0x0, symName: __ZNKSt3__18ios_base5widthB7v160006Ev, symObjAddr: 0x4B00, symBinAddr: 0x100006184, symSize: 0x64 }
  - { offsetInCU: 0xBA05, offset: 0xBA05, size: 0x8, addend: 0x0, symName: __ZNSt3__115basic_streambufIcNS_11char_traitsIcEEE5sputnB7v160006EPKcl, symObjAddr: 0x4B64, symBinAddr: 0x1000061E8, symSize: 0xC8 }
  - { offsetInCU: 0xBA47, offset: 0xBA47, size: 0x8, addend: 0x0, symName: __ZNSt3__112basic_stringIcNS_11char_traitsIcEENS_9allocatorIcEEEC1B7v160006Emc, symObjAddr: 0x4C2C, symBinAddr: 0x1000062B0, symSize: 0x3C }
  - { offsetInCU: 0xBA8F, offset: 0xBA8F, size: 0x8, addend: 0x0, symName: __ZNSt3__112basic_stringIcNS_11char_traitsIcEENS_9allocatorIcEEE4dataB7v160006Ev, symObjAddr: 0x4C68, symBinAddr: 0x1000062EC, symSize: 0x28 }
  - { offsetInCU: 0xBAB5, offset: 0xBAB5, size: 0x8, addend: 0x0, symName: __ZNSt3__18ios_base5widthB7v160006El, symObjAddr: 0x4C90, symBinAddr: 0x100006314, symSize: 0xB8 }
  - { offsetInCU: 0xBAFB, offset: 0xBAFB, size: 0x8, addend: 0x0, symName: __ZNSt3__112basic_stringIcNS_11char_traitsIcEENS_9allocatorIcEEEC2B7v160006Emc, symObjAddr: 0x4D48, symBinAddr: 0x1000063CC, symSize: 0x20C }
  - { offsetInCU: 0xBB46, offset: 0xBB46, size: 0x8, addend: 0x0, symName: __ZNSt3__112basic_stringIcNS_11char_traitsIcEENS_9allocatorIcEEE13__get_pointerB7v160006Ev, symObjAddr: 0x4F68, symBinAddr: 0x1000065EC, symSize: 0x54 }
  - { offsetInCU: 0xBB6C, offset: 0xBB6C, size: 0x8, addend: 0x0, symName: __ZNKSt3__112basic_stringIcNS_11char_traitsIcEENS_9allocatorIcEEE9__is_longB7v160006Ev, symObjAddr: 0x4FBC, symBinAddr: 0x100006640, symSize: 0xA4 }
  - { offsetInCU: 0xBB92, offset: 0xBB92, size: 0x8, addend: 0x0, symName: __ZNSt3__112basic_stringIcNS_11char_traitsIcEENS_9allocatorIcEEE18__get_long_pointerB7v160006Ev, symObjAddr: 0x5060, symBinAddr: 0x1000066E4, symSize: 0x6C }
  - { offsetInCU: 0xBBB8, offset: 0xBBB8, size: 0x8, addend: 0x0, symName: __ZNSt3__112basic_stringIcNS_11char_traitsIcEENS_9allocatorIcEEE19__get_short_pointerB7v160006Ev, symObjAddr: 0x50CC, symBinAddr: 0x100006750, symSize: 0x28 }
  - { offsetInCU: 0xBBDE, offset: 0xBBDE, size: 0x8, addend: 0x0, symName: __ZNKSt3__117__compressed_pairINS_12basic_stringIcNS_11char_traitsIcEENS_9allocatorIcEEE5__repES5_E5firstB7v160006Ev, symObjAddr: 0x50F4, symBinAddr: 0x100006778, symSize: 0x24 }
  - { offsetInCU: 0xBC04, offset: 0xBC04, size: 0x8, addend: 0x0, symName: __ZNKSt3__122__compressed_pair_elemINS_12basic_stringIcNS_11char_traitsIcEENS_9allocatorIcEEE5__repELi0ELb0EE5__getB7v160006Ev, symObjAddr: 0x5118, symBinAddr: 0x10000679C, symSize: 0x14 }
  - { offsetInCU: 0xBC2A, offset: 0xBC2A, size: 0x8, addend: 0x0, symName: __ZNSt3__117__compressed_pairINS_12basic_stringIcNS_11char_traitsIcEENS_9allocatorIcEEE5__repES5_E5firstB7v160006Ev, symObjAddr: 0x512C, symBinAddr: 0x1000067B0, symSize: 0x24 }
  - { offsetInCU: 0xBC50, offset: 0xBC50, size: 0x8, addend: 0x0, symName: __ZNSt3__122__compressed_pair_elemINS_12basic_stringIcNS_11char_traitsIcEENS_9allocatorIcEEE5__repELi0ELb0EE5__getB7v160006Ev, symObjAddr: 0x5150, symBinAddr: 0x1000067D4, symSize: 0x14 }
  - { offsetInCU: 0xBC76, offset: 0xBC76, size: 0x8, addend: 0x0, symName: __ZNSt3__114pointer_traitsIPcE10pointer_toB7v160006ERc, symObjAddr: 0x5164, symBinAddr: 0x1000067E8, symSize: 0x14 }
  - { offsetInCU: 0xBC99, offset: 0xBC99, size: 0x8, addend: 0x0, symName: __ZNSt3__119ostreambuf_iteratorIcNS_11char_traitsIcEEEC2B7v160006ERNS_13basic_ostreamIcS2_EE, symObjAddr: 0x5178, symBinAddr: 0x1000067FC, symSize: 0x10C }
  - { offsetInCU: 0xBCD1, offset: 0xBCD1, size: 0x8, addend: 0x0, symName: __ZNKSt3__19basic_iosIcNS_11char_traitsIcEEE5rdbufB7v160006Ev, symObjAddr: 0x5284, symBinAddr: 0x100006908, symSize: 0x24 }
  - { offsetInCU: 0xBCF9, offset: 0xBCF9, size: 0x8, addend: 0x0, symName: __ZNKSt3__18ios_base5rdbufB7v160006Ev, symObjAddr: 0x52A8, symBinAddr: 0x10000692C, symSize: 0x64 }
  - { offsetInCU: 0xBD1F, offset: 0xBD1F, size: 0x8, addend: 0x0, symName: __ZNSt3__111char_traitsIcE11eq_int_typeEii, symObjAddr: 0x530C, symBinAddr: 0x100006990, symSize: 0x28 }
  - { offsetInCU: 0xBD50, offset: 0xBD50, size: 0x8, addend: 0x0, symName: __ZNSt3__111char_traitsIcE3eofEv, symObjAddr: 0x5334, symBinAddr: 0x1000069B8, symSize: 0x8 }
  - { offsetInCU: 0xBD64, offset: 0xBD64, size: 0x8, addend: 0x0, symName: __ZNKSt3__19basic_iosIcNS_11char_traitsIcEEE5widenB7v160006Ec, symObjAddr: 0x533C, symBinAddr: 0x1000069C0, symSize: 0x2A4 }
  - { offsetInCU: 0xBDCF, offset: 0xBDCF, size: 0x8, addend: 0x0, symName: __ZNKSt3__15ctypeIcE5widenB7v160006Ec, symObjAddr: 0x560C, symBinAddr: 0x100006C90, symSize: 0xBC }
  - { offsetInCU: 0xBE04, offset: 0xBE04, size: 0x8, addend: 0x0, symName: __ZNSt3__18ios_base8setstateB7v160006Ej, symObjAddr: 0x56C8, symBinAddr: 0x100006D4C, symSize: 0x9C }
  - { offsetInCU: 0xBE3B, offset: 0xBE3B, size: 0x8, addend: 0x0, symName: __ZNKSt3__112basic_stringIcNS_11char_traitsIcEENS_9allocatorIcEEE13__get_pointerB7v160006Ev, symObjAddr: 0x5778, symBinAddr: 0x100006DFC, symSize: 0x54 }
  - { offsetInCU: 0xBE61, offset: 0xBE61, size: 0x8, addend: 0x0, symName: __ZNKSt3__112basic_stringIcNS_11char_traitsIcEENS_9allocatorIcEEE18__get_long_pointerB7v160006Ev, symObjAddr: 0x57CC, symBinAddr: 0x100006E50, symSize: 0x6C }
  - { offsetInCU: 0xBE87, offset: 0xBE87, size: 0x8, addend: 0x0, symName: __ZNKSt3__112basic_stringIcNS_11char_traitsIcEENS_9allocatorIcEEE19__get_short_pointerB7v160006Ev, symObjAddr: 0x5838, symBinAddr: 0x100006EBC, symSize: 0x28 }
  - { offsetInCU: 0xBEAD, offset: 0xBEAD, size: 0x8, addend: 0x0, symName: __ZNSt3__114pointer_traitsIPKcE10pointer_toB7v160006ERS1_, symObjAddr: 0x5860, symBinAddr: 0x100006EE4, symSize: 0x14 }
  - { offsetInCU: 0xBED0, offset: 0xBED0, size: 0x8, addend: 0x0, symName: __ZNKSt3__112basic_stringIcNS_11char_traitsIcEENS_9allocatorIcEEE15__get_long_sizeB7v160006Ev, symObjAddr: 0x5874, symBinAddr: 0x100006EF8, symSize: 0x70 }
  - { offsetInCU: 0xBEF6, offset: 0xBEF6, size: 0x8, addend: 0x0, symName: __ZNKSt3__112basic_stringIcNS_11char_traitsIcEENS_9allocatorIcEEE16__get_short_sizeB7v160006Ev, symObjAddr: 0x58E4, symBinAddr: 0x100006F68, symSize: 0xA0 }
  - { offsetInCU: 0xBF1C, offset: 0xBF1C, size: 0x8, addend: 0x0, symName: __ZNSt3__112basic_stringIcNS_11char_traitsIcEENS_9allocatorIcEEEC2B7v160006Ev, symObjAddr: 0x5984, symBinAddr: 0x100007008, symSize: 0x214 }
  - { offsetInCU: 0xBF47, offset: 0xBF47, size: 0x8, addend: 0x0, symName: __ZNSt3__112basic_stringIcNS_11char_traitsIcEENS_9allocatorIcEEE14__default_initB7v160006Ev, symObjAddr: 0x5B98, symBinAddr: 0x10000721C, symSize: 0x22C }
  - { offsetInCU: 0xBFFC, offset: 0xBFFC, size: 0x8, addend: 0x0, symName: __ZNKSt3__113basic_istreamIcNS_11char_traitsIcEEE6sentrycvbB7v160006Ev, symObjAddr: 0x644C, symBinAddr: 0x100007AD0, symSize: 0x88 }
  - { offsetInCU: 0xC022, offset: 0xC022, size: 0x8, addend: 0x0, symName: __ZNSt3__112basic_stringIcNS_11char_traitsIcEENS_9allocatorIcEEE5clearB7v160006Ev, symObjAddr: 0x64D4, symBinAddr: 0x100007B58, symSize: 0x328 }
  - { offsetInCU: 0xC04B, offset: 0xC04B, size: 0x8, addend: 0x0, symName: __ZNSt3__115basic_streambufIcNS_11char_traitsIcEEE6sbumpcB7v160006Ev, symObjAddr: 0x67FC, symBinAddr: 0x100007E80, symSize: 0x1EC }
  - { offsetInCU: 0xC071, offset: 0xC071, size: 0x8, addend: 0x0, symName: __ZNSt3__111char_traitsIcE12to_char_typeEi, symObjAddr: 0x69E8, symBinAddr: 0x10000806C, symSize: 0x18 }
  - { offsetInCU: 0xC094, offset: 0xC094, size: 0x8, addend: 0x0, symName: __ZNSt3__111char_traitsIcE2eqEcc, symObjAddr: 0x6A00, symBinAddr: 0x100008084, symSize: 0x28 }
  - { offsetInCU: 0xC0C5, offset: 0xC0C5, size: 0x8, addend: 0x0, symName: __ZNKSt3__112basic_stringIcNS_11char_traitsIcEENS_9allocatorIcEEE8max_sizeB7v160006Ev, symObjAddr: 0x6A28, symBinAddr: 0x1000080AC, symSize: 0xBC }
  - { offsetInCU: 0xC117, offset: 0xC117, size: 0x8, addend: 0x0, symName: __ZNSt3__18ios_base18__setstate_nothrowB7v160006Ej, symObjAddr: 0x6AE4, symBinAddr: 0x100008168, symSize: 0x178 }
  - { offsetInCU: 0xC14C, offset: 0xC14C, size: 0x8, addend: 0x0, symName: __ZNKSt3__19basic_iosIcNS_11char_traitsIcEEE10exceptionsB7v160006Ev, symObjAddr: 0x6C5C, symBinAddr: 0x1000082E0, symSize: 0x24 }
  - { offsetInCU: 0xC172, offset: 0xC172, size: 0x8, addend: 0x0, symName: __ZNSt3__111char_traitsIcE6assignERcRKc, symObjAddr: 0x6C90, symBinAddr: 0x100008314, symSize: 0xF4 }
  - { offsetInCU: 0xC1A3, offset: 0xC1A3, size: 0x8, addend: 0x0, symName: __ZNSt3__112basic_stringIcNS_11char_traitsIcEENS_9allocatorIcEEE15__set_long_sizeB7v160006Em, symObjAddr: 0x6D84, symBinAddr: 0x100008408, symSize: 0x80 }
  - { offsetInCU: 0xC1D8, offset: 0xC1D8, size: 0x8, addend: 0x0, symName: __ZNSt3__112basic_stringIcNS_11char_traitsIcEENS_9allocatorIcEEE16__set_short_sizeB7v160006Em, symObjAddr: 0x6E04, symBinAddr: 0x100008488, symSize: 0x130 }
  - { offsetInCU: 0xC20D, offset: 0xC20D, size: 0x8, addend: 0x0, symName: __ZNSt3__111char_traitsIcE11to_int_typeEc, symObjAddr: 0x6F34, symBinAddr: 0x1000085B8, symSize: 0x14 }
  - { offsetInCU: 0xC23A, offset: 0xC23A, size: 0x8, addend: 0x0, symName: __ZNSt3__116allocator_traitsINS_9allocatorIcEEE8max_sizeB7v160006IS2_vEEmRKS2_, symObjAddr: 0x6F48, symBinAddr: 0x1000085CC, symSize: 0x24 }
  - { offsetInCU: 0xC268, offset: 0xC268, size: 0x8, addend: 0x0, symName: __ZNKSt3__112basic_stringIcNS_11char_traitsIcEENS_9allocatorIcEEE7__allocB7v160006Ev, symObjAddr: 0x6F6C, symBinAddr: 0x1000085F0, symSize: 0x24 }
  - { offsetInCU: 0xC28E, offset: 0xC28E, size: 0x8, addend: 0x0, symName: __ZNSt3__114numeric_limitsImE3maxB7v160006Ev, symObjAddr: 0x6F90, symBinAddr: 0x100008614, symSize: 0x14 }
  - { offsetInCU: 0xC2A2, offset: 0xC2A2, size: 0x8, addend: 0x0, symName: __ZNKSt3__19allocatorIcE8max_sizeB7v160006Ev, symObjAddr: 0x6FA4, symBinAddr: 0x100008628, symSize: 0x14 }
  - { offsetInCU: 0xC2C8, offset: 0xC2C8, size: 0x8, addend: 0x0, symName: __ZNKSt3__117__compressed_pairINS_12basic_stringIcNS_11char_traitsIcEENS_9allocatorIcEEE5__repES5_E6secondB7v160006Ev, symObjAddr: 0x6FB8, symBinAddr: 0x10000863C, symSize: 0x24 }
  - { offsetInCU: 0xC2EE, offset: 0xC2EE, size: 0x8, addend: 0x0, symName: __ZNKSt3__122__compressed_pair_elemINS_9allocatorIcEELi1ELb1EE5__getB7v160006Ev, symObjAddr: 0x6FDC, symBinAddr: 0x100008660, symSize: 0x14 }
  - { offsetInCU: 0xC314, offset: 0xC314, size: 0x8, addend: 0x0, symName: __ZNSt3__123__libcpp_numeric_limitsImLb1EE3maxB7v160006Ev, symObjAddr: 0x6FF0, symBinAddr: 0x100008674, symSize: 0x8 }
  - { offsetInCU: 0xC328, offset: 0xC328, size: 0x8, addend: 0x0, symName: __ZNKSt3__18ios_base10exceptionsB7v160006Ev, symObjAddr: 0x6FF8, symBinAddr: 0x10000867C, symSize: 0x8C }
  - { offsetInCU: 0xC350, offset: 0xC350, size: 0x8, addend: 0x0, symName: __ZNSt3__16vectorIN3thc4MoveENS_9allocatorIS2_EEEC2B7v160006Ev, symObjAddr: 0x7084, symBinAddr: 0x100008708, symSize: 0x2F4 }
  - { offsetInCU: 0xC380, offset: 0xC380, size: 0x8, addend: 0x0, symName: __ZNSt3__117__compressed_pairIPN3thc4MoveENS_9allocatorIS2_EEEC1B7v160006IDnNS_18__default_init_tagEEEOT_OT0_, symObjAddr: 0x7378, symBinAddr: 0x1000089FC, symSize: 0x3C }
  - { offsetInCU: 0xC3D8, offset: 0xC3D8, size: 0x8, addend: 0x0, symName: __ZNSt3__117__compressed_pairIPN3thc4MoveENS_9allocatorIS2_EEEC2B7v160006IDnNS_18__default_init_tagEEEOT_OT0_, symObjAddr: 0x73C4, symBinAddr: 0x100008A48, symSize: 0x40 }
  - { offsetInCU: 0xC430, offset: 0xC430, size: 0x8, addend: 0x0, symName: __ZNSt3__122__compressed_pair_elemIPN3thc4MoveELi0ELb0EEC2B7v160006IDnvEEOT_, symObjAddr: 0x7404, symBinAddr: 0x100008A88, symSize: 0x64 }
  - { offsetInCU: 0xC472, offset: 0xC472, size: 0x8, addend: 0x0, symName: __ZNSt3__122__compressed_pair_elemINS_9allocatorIN3thc4MoveEEELi1ELb1EEC2B7v160006ENS_18__default_init_tagE, symObjAddr: 0x7468, symBinAddr: 0x100008AEC, symSize: 0x2C }
  - { offsetInCU: 0xC4A7, offset: 0xC4A7, size: 0x8, addend: 0x0, symName: __ZNSt3__19allocatorIN3thc4MoveEEC2B7v160006Ev, symObjAddr: 0x7494, symBinAddr: 0x100008B18, symSize: 0x2C }
  - { offsetInCU: 0xC4D1, offset: 0xC4D1, size: 0x8, addend: 0x0, symName: __ZNSt3__116__non_trivial_ifILb1ENS_9allocatorIN3thc4MoveEEEEC2B7v160006Ev, symObjAddr: 0x74C0, symBinAddr: 0x100008B44, symSize: 0x14 }
  - { offsetInCU: 0xC4FB, offset: 0xC4FB, size: 0x8, addend: 0x0, symName: __ZNSt3__16vectorIN3thc4MoveENS_9allocatorIS2_EEED2B7v160006Ev, symObjAddr: 0x74D4, symBinAddr: 0x100008B58, symSize: 0x1F8 }
  - { offsetInCU: 0xC526, offset: 0xC526, size: 0x8, addend: 0x0, symName: __ZNSt3__16vectorIN3thc4MoveENS_9allocatorIS2_EEE16__destroy_vectorC1ERS5_, symObjAddr: 0x76CC, symBinAddr: 0x100008D50, symSize: 0x34 }
  - { offsetInCU: 0xC55F, offset: 0xC55F, size: 0x8, addend: 0x0, symName: __ZNSt3__16vectorIN3thc4MoveENS_9allocatorIS2_EEE16__destroy_vectorclB7v160006Ev, symObjAddr: 0x7700, symBinAddr: 0x100008D84, symSize: 0x264 }
  - { offsetInCU: 0xC585, offset: 0xC585, size: 0x8, addend: 0x0, symName: __ZNSt3__16vectorIN3thc4MoveENS_9allocatorIS2_EEE16__destroy_vectorC2ERS5_, symObjAddr: 0x7964, symBinAddr: 0x100008FE8, symSize: 0x70 }
  - { offsetInCU: 0xC5BE, offset: 0xC5BE, size: 0x8, addend: 0x0, symName: __ZNKSt3__16vectorIN3thc4MoveENS_9allocatorIS2_EEE17__annotate_deleteB7v160006Ev, symObjAddr: 0x79D4, symBinAddr: 0x100009058, symSize: 0xCC }
  - { offsetInCU: 0xC5E4, offset: 0xC5E4, size: 0x8, addend: 0x0, symName: __ZNSt3__16vectorIN3thc4MoveENS_9allocatorIS2_EEE7__clearB7v160006Ev, symObjAddr: 0x7AB0, symBinAddr: 0x100009134, symSize: 0x64 }
  - { offsetInCU: 0xC60A, offset: 0xC60A, size: 0x8, addend: 0x0, symName: __ZNSt3__116allocator_traitsINS_9allocatorIN3thc4MoveEEEE10deallocateB7v160006ERS4_PS3_m, symObjAddr: 0x7B14, symBinAddr: 0x100009198, symSize: 0x34 }
  - { offsetInCU: 0xC64C, offset: 0xC64C, size: 0x8, addend: 0x0, symName: __ZNSt3__16vectorIN3thc4MoveENS_9allocatorIS2_EEE7__allocB7v160006Ev, symObjAddr: 0x7B48, symBinAddr: 0x1000091CC, symSize: 0x28 }
  - { offsetInCU: 0xC672, offset: 0xC672, size: 0x8, addend: 0x0, symName: __ZNKSt3__16vectorIN3thc4MoveENS_9allocatorIS2_EEE8capacityB7v160006Ev, symObjAddr: 0x7B70, symBinAddr: 0x1000091F4, symSize: 0xBC }
  - { offsetInCU: 0xC698, offset: 0xC698, size: 0x8, addend: 0x0, symName: __ZNKSt3__16vectorIN3thc4MoveENS_9allocatorIS2_EEE31__annotate_contiguous_containerEPKvS7_S7_S7_, symObjAddr: 0x7C2C, symBinAddr: 0x1000092B0, symSize: 0x58 }
  - { offsetInCU: 0xC6FA, offset: 0xC6FA, size: 0x8, addend: 0x0, symName: __ZNKSt3__16vectorIN3thc4MoveENS_9allocatorIS2_EEE4dataB7v160006Ev, symObjAddr: 0x7C84, symBinAddr: 0x100009308, symSize: 0x64 }
  - { offsetInCU: 0xC720, offset: 0xC720, size: 0x8, addend: 0x0, symName: __ZNKSt3__16vectorIN3thc4MoveENS_9allocatorIS2_EEE4sizeB7v160006Ev, symObjAddr: 0x7CE8, symBinAddr: 0x10000936C, symSize: 0xB0 }
  - { offsetInCU: 0xC746, offset: 0xC746, size: 0x8, addend: 0x0, symName: __ZNSt3__16vectorIN3thc4MoveENS_9allocatorIS2_EEE22__base_destruct_at_endB7v160006EPS2_, symObjAddr: 0x7DAC, symBinAddr: 0x100009430, symSize: 0x114 }
  - { offsetInCU: 0xC78A, offset: 0xC78A, size: 0x8, addend: 0x0, symName: __ZNSt3__116allocator_traitsINS_9allocatorIN3thc4MoveEEEE7destroyB7v160006IS3_vEEvRS4_PT_, symObjAddr: 0x7EC0, symBinAddr: 0x100009544, symSize: 0x2C }
  - { offsetInCU: 0xC7C7, offset: 0xC7C7, size: 0x8, addend: 0x0, symName: __ZNSt3__19allocatorIN3thc4MoveEE7destroyB7v160006EPS2_, symObjAddr: 0x7EEC, symBinAddr: 0x100009570, symSize: 0x14 }
  - { offsetInCU: 0xC7FB, offset: 0xC7FB, size: 0x8, addend: 0x0, symName: __ZNSt3__19allocatorIN3thc4MoveEE10deallocateB7v160006EPS2_m, symObjAddr: 0x7F00, symBinAddr: 0x100009584, symSize: 0x4C }
  - { offsetInCU: 0xC83D, offset: 0xC83D, size: 0x8, addend: 0x0, symName: __ZNSt3__117__compressed_pairIPN3thc4MoveENS_9allocatorIS2_EEE6secondB7v160006Ev, symObjAddr: 0x8074, symBinAddr: 0x1000096F8, symSize: 0x24 }
  - { offsetInCU: 0xC863, offset: 0xC863, size: 0x8, addend: 0x0, symName: __ZNSt3__122__compressed_pair_elemINS_9allocatorIN3thc4MoveEEELi1ELb1EE5__getB7v160006Ev, symObjAddr: 0x8098, symBinAddr: 0x10000971C, symSize: 0x14 }
  - { offsetInCU: 0xC889, offset: 0xC889, size: 0x8, addend: 0x0, symName: __ZNKSt3__16vectorIN3thc4MoveENS_9allocatorIS2_EEE9__end_capB7v160006Ev, symObjAddr: 0x80AC, symBinAddr: 0x100009730, symSize: 0x28 }
  - { offsetInCU: 0xC8AF, offset: 0xC8AF, size: 0x8, addend: 0x0, symName: __ZNKSt3__117__compressed_pairIPN3thc4MoveENS_9allocatorIS2_EEE5firstB7v160006Ev, symObjAddr: 0x80D4, symBinAddr: 0x100009758, symSize: 0x24 }
  - { offsetInCU: 0xC8D5, offset: 0xC8D5, size: 0x8, addend: 0x0, symName: __ZNKSt3__122__compressed_pair_elemIPN3thc4MoveELi0ELb0EE5__getB7v160006Ev, symObjAddr: 0x80F8, symBinAddr: 0x10000977C, symSize: 0x14 }
  - { offsetInCU: 0xC8FB, offset: 0xC8FB, size: 0x8, addend: 0x0, symName: __ZNSt3__16vectorIN3thc4MoveENS_9allocatorIS2_EEE11__make_iterB7v160006EPS2_, symObjAddr: 0x810C, symBinAddr: 0x100009790, symSize: 0x200 }
  - { offsetInCU: 0xC932, offset: 0xC932, size: 0x8, addend: 0x0, symName: __ZNSt3__111__wrap_iterIPN3thc4MoveEEC1B7v160006EPKvS3_, symObjAddr: 0x830C, symBinAddr: 0x100009990, symSize: 0x3C }
  - { offsetInCU: 0xC978, offset: 0xC978, size: 0x8, addend: 0x0, symName: __ZNSt3__111__wrap_iterIPN3thc4MoveEEC2B7v160006EPKvS3_, symObjAddr: 0x8348, symBinAddr: 0x1000099CC, symSize: 0x74 }
  - { offsetInCU: 0xC9BE, offset: 0xC9BE, size: 0x8, addend: 0x0, symName: __ZNKSt3__111__wrap_iterIPN3thc4MoveEEdeB7v160006Ev, symObjAddr: 0x83F0, symBinAddr: 0x100009A74, symSize: 0x60 }
  - { offsetInCU: 0xC9E4, offset: 0xC9E4, size: 0x8, addend: 0x0, symName: __ZNK3thc4MoveeqERKS0_, symObjAddr: 0x8450, symBinAddr: 0x100009AD4, symSize: 0x108 }
  - { offsetInCU: 0xCA18, offset: 0xCA18, size: 0x8, addend: 0x0, symName: __ZNSt3__111__wrap_iterIPN3thc4MoveEEppB7v160006Ev, symObjAddr: 0x8558, symBinAddr: 0x100009BDC, symSize: 0x68 }
  - { offsetInCU: 0x5B, offset: 0xCB3D, size: 0x8, addend: 0x0, symName: _debug_node_count, symObjAddr: 0x9B7A0, symBinAddr: 0x1000E8200, symSize: 0x0 }
  - { offsetInCU: 0x6E, offset: 0xCB50, size: 0x8, addend: 0x0, symName: _.str, symObjAddr: 0x34540, symBinAddr: 0x1000A2C60, symSize: 0x0 }
  - { offsetInCU: 0x9F, offset: 0xCB81, size: 0x8, addend: 0x0, symName: _.str.1, symObjAddr: 0x34560, symBinAddr: 0x1000A2C80, symSize: 0x0 }
  - { offsetInCU: 0xBD, offset: 0xCB9F, size: 0x8, addend: 0x0, symName: _.str.2, symObjAddr: 0x34580, symBinAddr: 0x1000A2CA0, symSize: 0x0 }
  - { offsetInCU: 0xDB, offset: 0xCBBD, size: 0x8, addend: 0x0, symName: _.str.3, symObjAddr: 0x345A0, symBinAddr: 0x1000A2CC0, symSize: 0x0 }
  - { offsetInCU: 0xF9, offset: 0xCBDB, size: 0x8, addend: 0x0, symName: _.str.4, symObjAddr: 0x345C0, symBinAddr: 0x1000A2CE0, symSize: 0x0 }
  - { offsetInCU: 0x117, offset: 0xCBF9, size: 0x8, addend: 0x0, symName: _.str.5, symObjAddr: 0x34600, symBinAddr: 0x1000A2D20, symSize: 0x0 }
  - { offsetInCU: 0x12C, offset: 0xCC0E, size: 0x8, addend: 0x0, symName: __ZL10pawn_table, symObjAddr: 0x343C0, symBinAddr: 0x1000A4740, symSize: 0x0 }
  - { offsetInCU: 0x152, offset: 0xCC34, size: 0x8, addend: 0x0, symName: __ZL12knight_table, symObjAddr: 0x33D80, symBinAddr: 0x1000A4100, symSize: 0x0 }
  - { offsetInCU: 0x16D, offset: 0xCC4F, size: 0x8, addend: 0x0, symName: __ZL12bishop_table, symObjAddr: 0x33EC0, symBinAddr: 0x1000A4240, symSize: 0x0 }
  - { offsetInCU: 0x188, offset: 0xCC6A, size: 0x8, addend: 0x0, symName: __ZL10rook_table, symObjAddr: 0x34000, symBinAddr: 0x1000A4380, symSize: 0x0 }
  - { offsetInCU: 0x1A3, offset: 0xCC85, size: 0x8, addend: 0x0, symName: __ZL11queen_table, symObjAddr: 0x34140, symBinAddr: 0x1000A44C0, symSize: 0x0 }
  - { offsetInCU: 0x1BE, offset: 0xCCA0, size: 0x8, addend: 0x0, symName: __ZL10king_table, symObjAddr: 0x34280, symBinAddr: 0x1000A4600, symSize: 0x0 }
  - { offsetInCU: 0x1D5, offset: 0xCCB7, size: 0x8, addend: 0x0, symName: _.str.7, symObjAddr: 0x34620, symBinAddr: 0x1000A2D40, symSize: 0x0 }
  - { offsetInCU: 0x3AA7, offset: 0x10589, size: 0x8, addend: 0x0, symName: __ZNSt3__16chronomiB7v160006IxNS_5ratioILl1ELl1000000000EEExS3_EENS_11common_typeIJNS0_8durationIT_T0_EENS5_IT1_T2_EEEE4typeERKS8_RKSB_, symObjAddr: 0xBD3C, symBinAddr: 0x100014EA4, symSize: 0x334 }
  - { offsetInCU: 0x3D7D, offset: 0x1085F, size: 0x8, addend: 0x0, symName: __ZNSt3__16chronomiB7v160006INS0_12steady_clockENS0_8durationIxNS_5ratioILl1ELl1000000000EEEEES6_EENS_11common_typeIJT0_T1_EE4typeERKNS0_10time_pointIT_S8_EERKNSC_ISD_S9_EE, symObjAddr: 0x8FE4, symBinAddr: 0x1000125E0, symSize: 0x338 }
  - { offsetInCU: 0x3E14, offset: 0x108F6, size: 0x8, addend: 0x0, symName: __ZNSt3__16chrono13duration_castB7v160006INS0_8durationIdNS_5ratioILl1ELl1EEEEExNS3_ILl1ELl1000000000EEEEENS_9enable_ifIXsr13__is_durationIT_EE5valueES8_E4typeERKNS2_IT0_T1_EE, symObjAddr: 0xC534, symBinAddr: 0x10001569C, symSize: 0x27C }
  - { offsetInCU: 0x5A89, offset: 0x1256B, size: 0x8, addend: 0x0, symName: __ZNSt3__117__cxx_atomic_loadB7v160006IbEET_PKNS_22__cxx_atomic_base_implIS1_EENS_12memory_orderE, symObjAddr: 0x16C1C, symBinAddr: 0x10001EA4C, symSize: 0x19C }
  - { offsetInCU: 0x7C93, offset: 0x14775, size: 0x8, addend: 0x0, symName: '__ZNSt3__111__introsortINS_17_ClassicAlgPolicyERZN12SerialEngine7quiesceERN3thc10ChessRulesEffE3$_1PNS_4pairIfNS3_4MoveEEEEEvT1_SC_T0_NS_15iterator_traitsISC_E15difference_typeE', symObjAddr: 0x25548, symBinAddr: 0x10002B38C, symSize: 0x1E84 }
  - { offsetInCU: 0x7E06, offset: 0x148E8, size: 0x8, addend: 0x0, symName: '__ZNSt3__118__insertion_sort_3B7v160006INS_17_ClassicAlgPolicyERZN12SerialEngine7quiesceERN3thc10ChessRulesEffE3$_1PNS_4pairIfNS3_4MoveEEEEEvT1_SC_T0_', symObjAddr: 0x27688, symBinAddr: 0x10002D4CC, symSize: 0x570 }
  - { offsetInCU: 0x7EE2, offset: 0x149C4, size: 0x8, addend: 0x0, symName: '__ZNSt3__111__sift_downB7v160006INS_17_ClassicAlgPolicyERZN12SerialEngine7quiesceERN3thc10ChessRulesEffE3$_1PNS_4pairIfNS3_4MoveEEEEEvT1_OT0_NS_15iterator_traitsISC_E15difference_typeESC_', symObjAddr: 0x2A1F0, symBinAddr: 0x100030034, symSize: 0x788 }
  - { offsetInCU: 0x7FA3, offset: 0x14A85, size: 0x8, addend: 0x0, symName: '__ZNSt3__117__floyd_sift_downB7v160006INS_17_ClassicAlgPolicyERZN12SerialEngine7quiesceERN3thc10ChessRulesEffE3$_1PNS_4pairIfNS3_4MoveEEEEET1_SC_OT0_NS_15iterator_traitsISC_E15difference_typeE', symObjAddr: 0x2AE6C, symBinAddr: 0x100030CB0, symSize: 0x3CC }
  - { offsetInCU: 0x8048, offset: 0x14B2A, size: 0x8, addend: 0x0, symName: '__ZNSt3__127__insertion_sort_incompleteIRZN12SerialEngine7quiesceERN3thc10ChessRulesEffE3$_1PNS_4pairIfNS2_4MoveEEEEEbT0_SB_T_', symObjAddr: 0x2834C, symBinAddr: 0x10002E190, symSize: 0xC08 }
  - { offsetInCU: 0x8163, offset: 0x14C45, size: 0x8, addend: 0x0, symName: '__ZNSt3__111__introsortINS_17_ClassicAlgPolicyERZN12SerialEngine19solve_serial_engineERN3thc10ChessRulesEbRNS3_4MoveEiiffE3$_2PNS_4pairIfS6_EEEEvT1_SD_T0_NS_15iterator_traitsISD_E15difference_typeE', symObjAddr: 0x2D2A8, symBinAddr: 0x1000330EC, symSize: 0x1E84 }
  - { offsetInCU: 0x82D6, offset: 0x14DB8, size: 0x8, addend: 0x0, symName: '__ZNSt3__118__insertion_sort_3B7v160006INS_17_ClassicAlgPolicyERZN12SerialEngine19solve_serial_engineERN3thc10ChessRulesEbRNS3_4MoveEiiffE3$_2PNS_4pairIfS6_EEEEvT1_SD_T0_', symObjAddr: 0x2F31C, symBinAddr: 0x100035160, symSize: 0x570 }
  - { offsetInCU: 0x83B2, offset: 0x14E94, size: 0x8, addend: 0x0, symName: '__ZNSt3__111__sift_downB7v160006INS_17_ClassicAlgPolicyERZN12SerialEngine19solve_serial_engineERN3thc10ChessRulesEbRNS3_4MoveEiiffE3$_2PNS_4pairIfS6_EEEEvT1_OT0_NS_15iterator_traitsISD_E15difference_typeESD_', symObjAddr: 0x31860, symBinAddr: 0x1000376A4, symSize: 0x788 }
  - { offsetInCU: 0x8473, offset: 0x14F55, size: 0x8, addend: 0x0, symName: '__ZNSt3__117__floyd_sift_downB7v160006INS_17_ClassicAlgPolicyERZN12SerialEngine19solve_serial_engineERN3thc10ChessRulesEbRNS3_4MoveEiiffE3$_2PNS_4pairIfS6_EEEET1_SD_OT0_NS_15iterator_traitsISD_E15difference_typeE', symObjAddr: 0x324DC, symBinAddr: 0x100038320, symSize: 0x3CC }
  - { offsetInCU: 0x8518, offset: 0x14FFA, size: 0x8, addend: 0x0, symName: '__ZNSt3__127__insertion_sort_incompleteIRZN12SerialEngine19solve_serial_engineERN3thc10ChessRulesEbRNS2_4MoveEiiffE3$_2PNS_4pairIfS5_EEEEbT0_SC_T_', symObjAddr: 0x2FFE0, symBinAddr: 0x100035E24, symSize: 0xC08 }
  - { offsetInCU: 0x9617, offset: 0x160F9, size: 0x8, addend: 0x0, symName: __ZNSt3__1neB7v160006IPKiEEbRKNS_11__wrap_iterIT_EES7_, symObjAddr: 0x46D8, symBinAddr: 0x10000DCD4, symSize: 0x34 }
  - { offsetInCU: 0x9679, offset: 0x1615B, size: 0x8, addend: 0x0, symName: '__ZNSt3__14sortB7v160006INS_11__wrap_iterIPNS_4pairIfN3thc4MoveEEEEEZN12SerialEngine7quiesceERNS3_10ChessRulesEffE3$_1EEvT_SC_T0_', symObjAddr: 0xA4C4, symBinAddr: 0x100013978, symSize: 0x36C }
  - { offsetInCU: 0x96E0, offset: 0x161C2, size: 0x8, addend: 0x0, symName: __ZNSt3__1neB7v160006IPNS_4pairIfN3thc4MoveEEEEEbRKNS_11__wrap_iterIT_EESA_, symObjAddr: 0xAD04, symBinAddr: 0x1000141B8, symSize: 0x34 }
  - { offsetInCU: 0x9723, offset: 0x16205, size: 0x8, addend: 0x0, symName: __ZNSt3__13maxB7v160006IfEERKT_S3_S3_, symObjAddr: 0xAE2C, symBinAddr: 0x1000142E0, symSize: 0x2C }
  - { offsetInCU: 0x9766, offset: 0x16248, size: 0x8, addend: 0x0, symName: __ZNSt3__13minB7v160006IfEERKT_S3_S3_, symObjAddr: 0xAE58, symBinAddr: 0x10001430C, symSize: 0x2C }
  - { offsetInCU: 0x97A9, offset: 0x1628B, size: 0x8, addend: 0x0, symName: '__ZNSt3__14sortB7v160006INS_11__wrap_iterIPNS_4pairIfN3thc4MoveEEEEEZN12SerialEngine19solve_serial_engineERNS3_10ChessRulesEbRS4_iiffE3$_2EEvT_SD_T0_', symObjAddr: 0xAF78, symBinAddr: 0x10001442C, symSize: 0x36C }
  - { offsetInCU: 0x9810, offset: 0x162F2, size: 0x8, addend: 0x0, symName: __ZNSt3__1eqB7v160006IPKiEEbRKNS_11__wrap_iterIT_EES7_, symObjAddr: 0xBC94, symBinAddr: 0x100014DFC, symSize: 0x48 }
  - { offsetInCU: 0x9853, offset: 0x16335, size: 0x8, addend: 0x0, symName: __ZNSt3__1eqB7v160006IPNS_4pairIfN3thc4MoveEEEEEbRKNS_11__wrap_iterIT_EESA_, symObjAddr: 0xCB40, symBinAddr: 0x100015CA8, symSize: 0x48 }
  - { offsetInCU: 0x9896, offset: 0x16378, size: 0x8, addend: 0x0, symName: __ZNSt3__13maxB7v160006IfNS_6__lessIffEEEERKT_S5_S5_T0_, symObjAddr: 0xCBE8, symBinAddr: 0x100015D50, symSize: 0x1E8 }
  - { offsetInCU: 0x9931, offset: 0x16413, size: 0x8, addend: 0x0, symName: __ZNSt3__13minB7v160006IfNS_6__lessIffEEEERKT_S5_S5_T0_, symObjAddr: 0xCEDC, symBinAddr: 0x100016044, symSize: 0x1E8 }
  - { offsetInCU: 0x9992, offset: 0x16474, size: 0x8, addend: 0x0, symName: __ZNSt3__118__cxx_atomic_storeB7v160006IbEEvPNS_22__cxx_atomic_base_implIT_EES2_NS_12memory_orderE, symObjAddr: 0xD104, symBinAddr: 0x10001626C, symSize: 0x1C0 }
  - { offsetInCU: 0x9A08, offset: 0x164EA, size: 0x8, addend: 0x0, symName: __ZNSt3__119__debug_db_insert_cB7v160006INS_6vectorIiNS_9allocatorIiEEEEEEvPT_, symObjAddr: 0xEEA8, symBinAddr: 0x100016CD8, symSize: 0x10 }
  - { offsetInCU: 0x9A39, offset: 0x1651B, size: 0x8, addend: 0x0, symName: __ZNSt3__118__debug_db_erase_cB7v160006INS_6vectorIiNS_9allocatorIiEEEEEEvPT_, symObjAddr: 0xF594, symBinAddr: 0x1000173C4, symSize: 0x10 }
  - { offsetInCU: 0x9A6A, offset: 0x1654C, size: 0x8, addend: 0x0, symName: __ZNSt3__112__to_addressB7v160006IiEEPT_S2_, symObjAddr: 0xF88C, symBinAddr: 0x1000176BC, symSize: 0x14 }
  - { offsetInCU: 0x9A9E, offset: 0x16580, size: 0x8, addend: 0x0, symName: __ZNSt3__13maxB7v160006ImEERKT_S3_S3_, symObjAddr: 0x11670, symBinAddr: 0x1000194A0, symSize: 0x2C }
  - { offsetInCU: 0x9AE1, offset: 0x165C3, size: 0x8, addend: 0x0, symName: __ZNSt3__13minB7v160006ImEERKT_S3_S3_, symObjAddr: 0x1169C, symBinAddr: 0x1000194CC, symSize: 0x2C }
  - { offsetInCU: 0x9D0E, offset: 0x167F0, size: 0x8, addend: 0x0, symName: __ZNSt3__13minB7v160006ImNS_6__lessImmEEEERKT_S5_S5_T0_, symObjAddr: 0x11728, symBinAddr: 0x100019558, symSize: 0x1E8 }
  - { offsetInCU: 0x9DAA, offset: 0x1688C, size: 0x8, addend: 0x0, symName: __ZNSt3__120__throw_length_errorB7v160006EPKc, symObjAddr: 0x11A20, symBinAddr: 0x100019850, symSize: 0x68 }
  - { offsetInCU: 0x9DD2, offset: 0x168B4, size: 0x8, addend: 0x0, symName: __ZNSt3__13maxB7v160006ImNS_6__lessImmEEEERKT_S5_S5_T0_, symObjAddr: 0x11B48, symBinAddr: 0x100019978, symSize: 0x1E8 }
  - { offsetInCU: 0x9E32, offset: 0x16914, size: 0x8, addend: 0x0, symName: __ZNSt3__119__allocate_at_leastB7v160006INS_9allocatorIiEEEENS_19__allocation_resultINS_16allocator_traitsIT_E7pointerEEERS5_m, symObjAddr: 0x1228C, symBinAddr: 0x10001A0BC, symSize: 0x28C }
  - { offsetInCU: 0x9E77, offset: 0x16959, size: 0x8, addend: 0x0, symName: __ZNSt3__117__libcpp_allocateB7v160006Emm, symObjAddr: 0x126B4, symBinAddr: 0x10001A4E4, symSize: 0x60 }
  - { offsetInCU: 0x9ED1, offset: 0x169B3, size: 0x8, addend: 0x0, symName: __ZNSt3__121__libcpp_operator_newB7v160006IJmSt11align_val_tEEEPvDpT_, symObjAddr: 0x12714, symBinAddr: 0x10001A544, symSize: 0x2C }
  - { offsetInCU: 0x9F1E, offset: 0x16A00, size: 0x8, addend: 0x0, symName: __ZNSt3__121__libcpp_operator_newB7v160006IJmEEEPvDpT_, symObjAddr: 0x12740, symBinAddr: 0x10001A570, symSize: 0x24 }
  - { offsetInCU: 0x9F57, offset: 0x16A39, size: 0x8, addend: 0x0, symName: __ZNSt3__142__uninitialized_allocator_move_if_noexceptB7v160006INS_9allocatorIiEENS_16reverse_iteratorIPiEES5_ivEET1_RT_T0_S9_S6_, symObjAddr: 0x12810, symBinAddr: 0x10001A640, symSize: 0x4A8 }
  - { offsetInCU: 0x9FE2, offset: 0x16AC4, size: 0x8, addend: 0x0, symName: __ZNSt3__14swapB7v160006IPiEENS_9enable_ifIXaasr21is_move_constructibleIT_EE5valuesr18is_move_assignableIS3_EE5valueEvE4typeERS3_S6_, symObjAddr: 0x12D50, symBinAddr: 0x10001AB80, symSize: 0x134 }
  - { offsetInCU: 0xA035, offset: 0x16B17, size: 0x8, addend: 0x0, symName: __ZNSt3__125__debug_db_invalidate_allB7v160006INS_6vectorIiNS_9allocatorIiEEEEEEvPT_, symObjAddr: 0x12F44, symBinAddr: 0x10001AD74, symSize: 0x10 }
  - { offsetInCU: 0xA065, offset: 0x16B47, size: 0x8, addend: 0x0, symName: __ZNSt3__14moveB7v160006INS_16reverse_iteratorIPiEES3_EET0_T_S5_S4_, symObjAddr: 0x12F54, symBinAddr: 0x10001AD84, symSize: 0x4B0 }
  - { offsetInCU: 0xA0CC, offset: 0x16BAE, size: 0x8, addend: 0x0, symName: __ZNSt3__16__moveB7v160006INS_17_ClassicAlgPolicyENS_16reverse_iteratorIPiEES4_S4_EENS_4pairIT0_T2_EES6_T1_S7_, symObjAddr: 0x13404, symBinAddr: 0x10001B234, symSize: 0x424 }
  - { offsetInCU: 0xA144, offset: 0x16C26, size: 0x8, addend: 0x0, symName: __ZNSt3__123__dispatch_copy_or_moveB7v160006INS_17_ClassicAlgPolicyENS_11__move_loopIS1_EENS_14__move_trivialENS_16reverse_iteratorIPiEES7_S7_EENS_4pairIT2_T4_EES9_T3_SA_, symObjAddr: 0x13828, symBinAddr: 0x10001B658, symSize: 0x424 }
  - { offsetInCU: 0xA1CE, offset: 0x16CB0, size: 0x8, addend: 0x0, symName: __ZNSt3__121__unwrap_and_dispatchB7v160006INS_10__overloadINS_11__move_loopINS_17_ClassicAlgPolicyEEENS_14__move_trivialEEENS_16reverse_iteratorIPiEES9_S9_Li0EEENS_4pairIT0_T2_EESB_T1_SC_, symObjAddr: 0x13C4C, symBinAddr: 0x10001BA7C, symSize: 0x880 }
  - { offsetInCU: 0xA275, offset: 0x16D57, size: 0x8, addend: 0x0, symName: __ZNSt3__114__unwrap_rangeB7v160006INS_16reverse_iteratorIPiEES3_EENS_4pairIT0_S5_EET_S7_, symObjAddr: 0x144CC, symBinAddr: 0x10001C2FC, symSize: 0x448 }
  - { offsetInCU: 0xA438, offset: 0x16F1A, size: 0x8, addend: 0x0, symName: __ZNSt3__113__unwrap_iterB7v160006INS_16reverse_iteratorIPiEENS_18__unwrap_iter_implIS3_Lb0EEELi0EEEDTclsrT0_8__unwrapclsr3stdE7declvalIT_EEEES7_, symObjAddr: 0x14D0C, symBinAddr: 0x10001CB3C, symSize: 0x2EC }
  - { offsetInCU: 0xA481, offset: 0x16F63, size: 0x8, addend: 0x0, symName: __ZNSt3__19make_pairB7v160006INS_16reverse_iteratorIPiEES3_EENS_4pairINS_18__unwrap_ref_decayIT_E4typeENS5_IT0_E4typeEEEOS6_OS9_, symObjAddr: 0x14FF8, symBinAddr: 0x10001CE28, symSize: 0x38 }
  - { offsetInCU: 0xA4D0, offset: 0x16FB2, size: 0x8, addend: 0x0, symName: __ZNSt3__114__rewrap_rangeB7v160006INS_16reverse_iteratorIPiEES3_EET_S4_T0_, symObjAddr: 0x15030, symBinAddr: 0x10001CE60, symSize: 0x3D4 }
  - { offsetInCU: 0xA524, offset: 0x17006, size: 0x8, addend: 0x0, symName: __ZNSt3__113__rewrap_iterB7v160006INS_16reverse_iteratorIPiEES3_NS_18__unwrap_iter_implIS3_Lb0EEEEET_S6_T0_, symObjAddr: 0x15404, symBinAddr: 0x10001D234, symSize: 0x3E8 }
  - { offsetInCU: 0xA581, offset: 0x17063, size: 0x8, addend: 0x0, symName: __ZNSt3__1neB7v160006IPiS1_EEbRKNS_16reverse_iteratorIT_EERKNS2_IT0_EE, symObjAddr: 0x157EC, symBinAddr: 0x10001D61C, symSize: 0x48 }
  - { offsetInCU: 0xA731, offset: 0x17213, size: 0x8, addend: 0x0, symName: __ZNSt3__119__allocate_at_leastB7v160006INS_9allocatorIN3thc4MoveEEEEENS_19__allocation_resultINS_16allocator_traitsIT_E7pointerEEERS7_m, symObjAddr: 0x1AE60, symBinAddr: 0x100020CA4, symSize: 0x28C }
  - { offsetInCU: 0xA776, offset: 0x17258, size: 0x8, addend: 0x0, symName: __ZNSt3__142__uninitialized_allocator_move_if_noexceptB7v160006INS_9allocatorIN3thc4MoveEEENS_16reverse_iteratorIPS3_EES7_S3_vEET1_RT_T0_SB_S8_, symObjAddr: 0x1B2FC, symBinAddr: 0x100021140, symSize: 0x4A8 }
  - { offsetInCU: 0xA801, offset: 0x172E3, size: 0x8, addend: 0x0, symName: __ZNSt3__14swapB7v160006IPN3thc4MoveEEENS_9enable_ifIXaasr21is_move_constructibleIT_EE5valuesr18is_move_assignableIS5_EE5valueEvE4typeERS5_S8_, symObjAddr: 0x1B83C, symBinAddr: 0x100021680, symSize: 0x134 }
  - { offsetInCU: 0xA854, offset: 0x17336, size: 0x8, addend: 0x0, symName: __ZNSt3__125__debug_db_invalidate_allB7v160006INS_6vectorIN3thc4MoveENS_9allocatorIS3_EEEEEEvPT_, symObjAddr: 0x1BA30, symBinAddr: 0x100021874, symSize: 0x10 }
  - { offsetInCU: 0xA884, offset: 0x17366, size: 0x8, addend: 0x0, symName: __ZNSt3__14moveB7v160006INS_16reverse_iteratorIPN3thc4MoveEEES5_EET0_T_S7_S6_, symObjAddr: 0x1BA40, symBinAddr: 0x100021884, symSize: 0x4B0 }
  - { offsetInCU: 0xA8EB, offset: 0x173CD, size: 0x8, addend: 0x0, symName: __ZNSt3__16__moveB7v160006INS_17_ClassicAlgPolicyENS_16reverse_iteratorIPN3thc4MoveEEES6_S6_EENS_4pairIT0_T2_EES8_T1_S9_, symObjAddr: 0x1BEF0, symBinAddr: 0x100021D34, symSize: 0x424 }
  - { offsetInCU: 0xA963, offset: 0x17445, size: 0x8, addend: 0x0, symName: __ZNSt3__123__dispatch_copy_or_moveB7v160006INS_17_ClassicAlgPolicyENS_11__move_loopIS1_EENS_14__move_trivialENS_16reverse_iteratorIPN3thc4MoveEEES9_S9_EENS_4pairIT2_T4_EESB_T3_SC_, symObjAddr: 0x1C314, symBinAddr: 0x100022158, symSize: 0x424 }
  - { offsetInCU: 0xA9ED, offset: 0x174CF, size: 0x8, addend: 0x0, symName: __ZNSt3__121__unwrap_and_dispatchB7v160006INS_10__overloadINS_11__move_loopINS_17_ClassicAlgPolicyEEENS_14__move_trivialEEENS_16reverse_iteratorIPN3thc4MoveEEESB_SB_Li0EEENS_4pairIT0_T2_EESD_T1_SE_, symObjAddr: 0x1C738, symBinAddr: 0x10002257C, symSize: 0x880 }
  - { offsetInCU: 0xAA94, offset: 0x17576, size: 0x8, addend: 0x0, symName: __ZNSt3__114__unwrap_rangeB7v160006INS_16reverse_iteratorIPN3thc4MoveEEES5_EENS_4pairIT0_S7_EET_S9_, symObjAddr: 0x1CFB8, symBinAddr: 0x100022DFC, symSize: 0x448 }
  - { offsetInCU: 0xABBD, offset: 0x1769F, size: 0x8, addend: 0x0, symName: __ZNSt3__113__unwrap_iterB7v160006INS_16reverse_iteratorIPN3thc4MoveEEENS_18__unwrap_iter_implIS5_Lb0EEELi0EEEDTclsrT0_8__unwrapclsr3stdE7declvalIT_EEEES9_, symObjAddr: 0x1D744, symBinAddr: 0x100023588, symSize: 0x2EC }
  - { offsetInCU: 0xAC06, offset: 0x176E8, size: 0x8, addend: 0x0, symName: __ZNSt3__19make_pairB7v160006INS_16reverse_iteratorIPN3thc4MoveEEES5_EENS_4pairINS_18__unwrap_ref_decayIT_E4typeENS7_IT0_E4typeEEEOS8_OSB_, symObjAddr: 0x1DA30, symBinAddr: 0x100023874, symSize: 0x38 }
  - { offsetInCU: 0xAC55, offset: 0x17737, size: 0x8, addend: 0x0, symName: __ZNSt3__114__rewrap_rangeB7v160006INS_16reverse_iteratorIPN3thc4MoveEEES5_EET_S6_T0_, symObjAddr: 0x1DA68, symBinAddr: 0x1000238AC, symSize: 0x3D4 }
  - { offsetInCU: 0xACA9, offset: 0x1778B, size: 0x8, addend: 0x0, symName: __ZNSt3__113__rewrap_iterB7v160006INS_16reverse_iteratorIPN3thc4MoveEEES5_NS_18__unwrap_iter_implIS5_Lb0EEEEET_S8_T0_, symObjAddr: 0x1DE3C, symBinAddr: 0x100023C80, symSize: 0x3E8 }
  - { offsetInCU: 0xAD06, offset: 0x177E8, size: 0x8, addend: 0x0, symName: __ZNSt3__1neB7v160006IPN3thc4MoveES3_EEbRKNS_16reverse_iteratorIT_EERKNS4_IT0_EE, symObjAddr: 0x1E224, symBinAddr: 0x100024068, symSize: 0x48 }
  - { offsetInCU: 0xADC0, offset: 0x178A2, size: 0x8, addend: 0x0, symName: __ZNSt3__119__debug_db_insert_cB7v160006INS_6vectorINS_4pairIfN3thc4MoveEEENS_9allocatorIS5_EEEEEEvPT_, symObjAddr: 0x1F0F0, symBinAddr: 0x100024F34, symSize: 0x10 }
  - { offsetInCU: 0xADF1, offset: 0x178D3, size: 0x8, addend: 0x0, symName: __ZNSt3__118__debug_db_erase_cB7v160006INS_6vectorINS_4pairIfN3thc4MoveEEENS_9allocatorIS5_EEEEEEvPT_, symObjAddr: 0x1F7DC, symBinAddr: 0x100025620, symSize: 0x10 }
  - { offsetInCU: 0xAE22, offset: 0x17904, size: 0x8, addend: 0x0, symName: __ZNSt3__112__to_addressB7v160006INS_4pairIfN3thc4MoveEEEEEPT_S6_, symObjAddr: 0x1FAD4, symBinAddr: 0x100025918, symSize: 0x14 }
  - { offsetInCU: 0xAE56, offset: 0x17938, size: 0x8, addend: 0x0, symName: __ZNSt3__119__allocate_at_leastB7v160006INS_9allocatorINS_4pairIfN3thc4MoveEEEEEEENS_19__allocation_resultINS_16allocator_traitsIT_E7pointerEEERS9_m, symObjAddr: 0x21FB4, symBinAddr: 0x100027DF8, symSize: 0x28C }
  - { offsetInCU: 0xAE9B, offset: 0x1797D, size: 0x8, addend: 0x0, symName: __ZNSt3__142__uninitialized_allocator_move_if_noexceptB7v160006INS_9allocatorINS_4pairIfN3thc4MoveEEEEENS_16reverse_iteratorIPS5_EES9_S9_EET2_RT_T0_T1_SA_, symObjAddr: 0x22450, symBinAddr: 0x100028294, symSize: 0x544 }
  - { offsetInCU: 0xAF50, offset: 0x17A32, size: 0x8, addend: 0x0, symName: __ZNSt3__14swapB7v160006IPNS_4pairIfN3thc4MoveEEEEENS_9enable_ifIXaasr21is_move_constructibleIT_EE5valuesr18is_move_assignableIS7_EE5valueEvE4typeERS7_SA_, symObjAddr: 0x22A2C, symBinAddr: 0x100028870, symSize: 0x134 }
  - { offsetInCU: 0xAFA3, offset: 0x17A85, size: 0x8, addend: 0x0, symName: __ZNSt3__125__debug_db_invalidate_allB7v160006INS_6vectorINS_4pairIfN3thc4MoveEEENS_9allocatorIS5_EEEEEEvPT_, symObjAddr: 0x22C20, symBinAddr: 0x100028A64, symSize: 0x10 }
  - { offsetInCU: 0xAFD3, offset: 0x17AB5, size: 0x8, addend: 0x0, symName: __ZNSt3__122__make_exception_guardB7v160006INS_29_AllocatorDestroyRangeReverseINS_9allocatorINS_4pairIfN3thc4MoveEEEEENS_16reverse_iteratorIPS6_EEEEEENS_28__exception_guard_exceptionsIT_EESD_, symObjAddr: 0x22C30, symBinAddr: 0x100028A74, symSize: 0x1F8 }
  - { offsetInCU: 0xB00A, offset: 0x17AEC, size: 0x8, addend: 0x0, symName: __ZNSt3__1neB7v160006IPNS_4pairIfN3thc4MoveEEES5_EEbRKNS_16reverse_iteratorIT_EERKNS6_IT0_EE, symObjAddr: 0x22E6C, symBinAddr: 0x100028CB0, symSize: 0x48 }
  - { offsetInCU: 0xB056, offset: 0x17B38, size: 0x8, addend: 0x0, symName: __ZNSt3__112__to_addressB7v160006INS_16reverse_iteratorIPNS_4pairIfN3thc4MoveEEEEEvEENS_5decayIDTclsr19__to_address_helperIT_EE6__callclsr3stdE7declvalIRKS9_EEEEE4typeESB_, symObjAddr: 0x22EE8, symBinAddr: 0x100028D2C, symSize: 0x24 }
  - { offsetInCU: 0xB0B7, offset: 0x17B99, size: 0x8, addend: 0x0, symName: __ZNSt3__119__allocator_destroyB7v160006INS_9allocatorINS_4pairIfN3thc4MoveEEEEENS_16reverse_iteratorINS7_IPS5_EEEESA_EEvRT_T0_T1_, symObjAddr: 0x23780, symBinAddr: 0x1000295C4, symSize: 0x70 }
  - { offsetInCU: 0xB11B, offset: 0x17BFD, size: 0x8, addend: 0x0, symName: __ZNSt3__1neB7v160006INS_16reverse_iteratorIPNS_4pairIfN3thc4MoveEEEEES7_EEbRKNS1_IT_EERKNS1_IT0_EE, symObjAddr: 0x23A38, symBinAddr: 0x10002987C, symSize: 0x2CC }
  - { offsetInCU: 0xB169, offset: 0x17C4B, size: 0x8, addend: 0x0, symName: __ZNSt3__112__to_addressB7v160006INS_16reverse_iteratorINS1_IPNS_4pairIfN3thc4MoveEEEEEEEvEENS_5decayIDTclsr19__to_address_helperIT_EE6__callclsr3stdE7declvalIRKSA_EEEEE4typeESC_, symObjAddr: 0x23D04, symBinAddr: 0x100029B48, symSize: 0x24 }
  - { offsetInCU: 0xB1C9, offset: 0x17CAB, size: 0x8, addend: 0x0, symName: '__ZNSt3__111__sort_implB7v160006INS_17_ClassicAlgPolicyENS_11__wrap_iterIPNS_4pairIfN3thc4MoveEEEEEZN12SerialEngine7quiesceERNS4_10ChessRulesEffE3$_1EEvT0_SD_RT1_', symObjAddr: 0x24B64, symBinAddr: 0x10002A9A8, symSize: 0x43C }
  - { offsetInCU: 0xB27D, offset: 0x17D5F, size: 0x8, addend: 0x0, symName: __ZNSt3__123__debug_randomize_rangeB7v160006INS_17_ClassicAlgPolicyENS_11__wrap_iterIPNS_4pairIfN3thc4MoveEEEEES8_EEvT0_T1_, symObjAddr: 0x24FA0, symBinAddr: 0x10002ADE4, symSize: 0x264 }
  - { offsetInCU: 0xB2D6, offset: 0x17DB8, size: 0x8, addend: 0x0, symName: '__ZNSt3__16__sortIRZN12SerialEngine7quiesceERN3thc10ChessRulesEffE3$_1PNS_4pairIfNS2_4MoveEEEEEvT0_SB_T_', symObjAddr: 0x25204, symBinAddr: 0x10002B048, symSize: 0x68 }
  - { offsetInCU: 0xB367, offset: 0x17E49, size: 0x8, addend: 0x0, symName: __ZNSt3__113__unwrap_iterB7v160006INS_11__wrap_iterIPNS_4pairIfN3thc4MoveEEEEENS_18__unwrap_iter_implIS7_Lb1EEELi0EEEDTclsrT0_8__unwrapclsr3stdE7declvalIT_EEEESB_, symObjAddr: 0x2526C, symBinAddr: 0x10002B0B0, symSize: 0x274 }
  - { offsetInCU: 0xB3B0, offset: 0x17E92, size: 0x8, addend: 0x0, symName: __ZNSt3__17__log2iB7v160006IlEET_S1_, symObjAddr: 0x254E0, symBinAddr: 0x10002B324, symSize: 0x54 }
  - { offsetInCU: 0xB41C, offset: 0x17EFE, size: 0x8, addend: 0x0, symName: __ZNSt3__112__libcpp_clzB7v160006Em, symObjAddr: 0x273E4, symBinAddr: 0x10002D228, symSize: 0x1C }
  - { offsetInCU: 0xB447, offset: 0x17F29, size: 0x8, addend: 0x0, symName: '__ZNSt3__124__sort3_maybe_branchlessB7v160006INS_17_ClassicAlgPolicyERZN12SerialEngine7quiesceERN3thc10ChessRulesEffE3$_1PNS_4pairIfNS3_4MoveEEEEENS_9enable_ifIXntsr21__use_branchless_sortIT0_T1_EE5valueEvE4typeESE_SE_SE_SD_', symObjAddr: 0x275BC, symBinAddr: 0x10002D400, symSize: 0x3C }
  - { offsetInCU: 0xB4B9, offset: 0x17F9B, size: 0x8, addend: 0x0, symName: '__ZNSt3__124__sort4_maybe_branchlessB7v160006INS_17_ClassicAlgPolicyERZN12SerialEngine7quiesceERN3thc10ChessRulesEffE3$_1PNS_4pairIfNS3_4MoveEEEEENS_9enable_ifIXntsr21__use_branchless_sortIT0_T1_EE5valueEvE4typeESE_SE_SE_SE_SD_', symObjAddr: 0x275F8, symBinAddr: 0x10002D43C, symSize: 0x44 }
  - { offsetInCU: 0xB53F, offset: 0x18021, size: 0x8, addend: 0x0, symName: '__ZNSt3__124__sort5_maybe_branchlessB7v160006INS_17_ClassicAlgPolicyERZN12SerialEngine7quiesceERN3thc10ChessRulesEffE3$_1PNS_4pairIfNS3_4MoveEEEEENS_9enable_ifIXntsr21__use_branchless_sortIT0_T1_EE5valueEvE4typeESE_SE_SE_SE_SE_SD_', symObjAddr: 0x2763C, symBinAddr: 0x10002D480, symSize: 0x4C }
  - { offsetInCU: 0xB5D4, offset: 0x180B6, size: 0x8, addend: 0x0, symName: '__ZNSt3__114__partial_sortB7v160006INS_17_ClassicAlgPolicyERZN12SerialEngine7quiesceERN3thc10ChessRulesEffE3$_1PNS_4pairIfNS3_4MoveEEESB_EET1_SC_SC_T2_RT0_', symObjAddr: 0x27BF8, symBinAddr: 0x10002DA3C, symSize: 0x94 }
  - { offsetInCU: 0xB65E, offset: 0x18140, size: 0x8, addend: 0x0, symName: '__ZNSt3__119__sort5_wrap_policyB7v160006INS_17_ClassicAlgPolicyERZN12SerialEngine7quiesceERN3thc10ChessRulesEffE3$_1PNS_4pairIfNS3_4MoveEEEEEjT1_SC_SC_SC_SC_T0_', symObjAddr: 0x27C8C, symBinAddr: 0x10002DAD0, symSize: 0x54 }
  - { offsetInCU: 0xB706, offset: 0x181E8, size: 0x8, addend: 0x0, symName: '__ZNSt3__17__sort3B7v160006INS_17_ClassicAlgPolicyERZN12SerialEngine7quiesceERN3thc10ChessRulesEffE3$_1PNS_4pairIfNS3_4MoveEEEEEjT1_SC_SC_T0_', symObjAddr: 0x27CE0, symBinAddr: 0x10002DB24, symSize: 0x66C }
  - { offsetInCU: 0xB796, offset: 0x18278, size: 0x8, addend: 0x0, symName: __ZNSt3__19iter_swapB7v160006IPNS_4pairIfN3thc4MoveEEES5_EEvT_T0_, symObjAddr: 0x28F6C, symBinAddr: 0x10002EDB0, symSize: 0x2C }
  - { offsetInCU: 0xB7DE, offset: 0x182C0, size: 0x8, addend: 0x0, symName: __ZNSt3__14swapB7v160006IfN3thc4MoveEEENS_9enable_ifIXaasr14__is_swappableIT_EE5valuesr14__is_swappableIT0_EE5valueEvE4typeERNS_4pairIS4_S5_EESA_, symObjAddr: 0x28F98, symBinAddr: 0x10002EDDC, symSize: 0x2C }
  - { offsetInCU: 0xB82D, offset: 0x1830F, size: 0x8, addend: 0x0, symName: __ZNSt3__14swapB7v160006IfEENS_9enable_ifIXaasr21is_move_constructibleIT_EE5valuesr18is_move_assignableIS2_EE5valueEvE4typeERS2_S5_, symObjAddr: 0x29008, symBinAddr: 0x10002EE4C, symSize: 0x1D4 }
  - { offsetInCU: 0xB87F, offset: 0x18361, size: 0x8, addend: 0x0, symName: __ZNSt3__14swapB7v160006IN3thc4MoveEEENS_9enable_ifIXaasr21is_move_constructibleIT_EE5valuesr18is_move_assignableIS4_EE5valueEvE4typeERS4_S7_, symObjAddr: 0x291DC, symBinAddr: 0x10002F020, symSize: 0x200 }
  - { offsetInCU: 0xB8D7, offset: 0x183B9, size: 0x8, addend: 0x0, symName: '__ZNSt3__17__sort4B7v160006INS_17_ClassicAlgPolicyERZN12SerialEngine7quiesceERN3thc10ChessRulesEffE3$_1PNS_4pairIfNS3_4MoveEEEEEjT1_SC_SC_SC_T0_', symObjAddr: 0x293DC, symBinAddr: 0x10002F220, symSize: 0x608 }
  - { offsetInCU: 0xB99F, offset: 0x18481, size: 0x8, addend: 0x0, symName: __ZNSt3__123__debug_randomize_rangeB7v160006INS_17_ClassicAlgPolicyEPNS_4pairIfN3thc4MoveEEES6_EEvT0_T1_, symObjAddr: 0x29B84, symBinAddr: 0x10002F9C8, symSize: 0x14 }
  - { offsetInCU: 0xB9EF, offset: 0x184D1, size: 0x8, addend: 0x0, symName: '__ZNSt3__119__partial_sort_implB7v160006INS_17_ClassicAlgPolicyERZN12SerialEngine7quiesceERN3thc10ChessRulesEffE3$_1PNS_4pairIfNS3_4MoveEEESB_EET1_SC_SC_T2_OT0_', symObjAddr: 0x29B98, symBinAddr: 0x10002F9DC, symSize: 0x59C }
  - { offsetInCU: 0xBA94, offset: 0x18576, size: 0x8, addend: 0x0, symName: '__ZNSt3__111__make_heapB7v160006INS_17_ClassicAlgPolicyERZN12SerialEngine7quiesceERN3thc10ChessRulesEffE3$_1PNS_4pairIfNS3_4MoveEEEEEvT1_SC_OT0_', symObjAddr: 0x2A134, symBinAddr: 0x10002FF78, symSize: 0xBC }
  - { offsetInCU: 0xBB3A, offset: 0x1861C, size: 0x8, addend: 0x0, symName: '__ZNSt3__111__sort_heapB7v160006INS_17_ClassicAlgPolicyERZN12SerialEngine7quiesceERN3thc10ChessRulesEffE3$_1PNS_4pairIfNS3_4MoveEEEEEvT1_SC_OT0_', symObjAddr: 0x2A978, symBinAddr: 0x1000307BC, symSize: 0x94 }
  - { offsetInCU: 0xBBD1, offset: 0x186B3, size: 0x8, addend: 0x0, symName: '__ZNSt3__110__pop_heapB7v160006INS_17_ClassicAlgPolicyEZN12SerialEngine7quiesceERN3thc10ChessRulesEffE3$_1PNS_4pairIfNS3_4MoveEEEEEvT1_SB_RT0_NS_15iterator_traitsISB_E15difference_typeE', symObjAddr: 0x2AA0C, symBinAddr: 0x100030850, symSize: 0x460 }
  - { offsetInCU: 0xBC8D, offset: 0x1876F, size: 0x8, addend: 0x0, symName: '__ZNSt3__19__sift_upB7v160006INS_17_ClassicAlgPolicyERZN12SerialEngine7quiesceERN3thc10ChessRulesEffE3$_1PNS_4pairIfNS3_4MoveEEEEEvT1_SC_OT0_NS_15iterator_traitsISC_E15difference_typeE', symObjAddr: 0x2B238, symBinAddr: 0x10003107C, symSize: 0x54C }
  - { offsetInCU: 0xBD3F, offset: 0x18821, size: 0x8, addend: 0x0, symName: '__ZNSt3__17__sort5IRZN12SerialEngine7quiesceERN3thc10ChessRulesEffE3$_1PNS_4pairIfNS2_4MoveEEEEEjT0_SB_SB_SB_SB_T_', symObjAddr: 0x2B784, symBinAddr: 0x1000315C8, symSize: 0x760 }
  - { offsetInCU: 0xBE59, offset: 0x1893B, size: 0x8, addend: 0x0, symName: __ZNSt3__112__to_addressB7v160006INS_11__wrap_iterIPNS_4pairIfN3thc4MoveEEEEEvEENS_5decayIDTclsr19__to_address_helperIT_EE6__callclsr3stdE7declvalIRKS9_EEEEE4typeESB_, symObjAddr: 0x2C0D4, symBinAddr: 0x100031F18, symSize: 0x24 }
  - { offsetInCU: 0xBF39, offset: 0x18A1B, size: 0x8, addend: 0x0, symName: '__ZNSt3__111__sort_implB7v160006INS_17_ClassicAlgPolicyENS_11__wrap_iterIPNS_4pairIfN3thc4MoveEEEEEZN12SerialEngine19solve_serial_engineERNS4_10ChessRulesEbRS5_iiffE3$_2EEvT0_SE_RT1_', symObjAddr: 0x2CDF0, symBinAddr: 0x100032C34, symSize: 0x43C }
  - { offsetInCU: 0xBFEC, offset: 0x18ACE, size: 0x8, addend: 0x0, symName: '__ZNSt3__16__sortIRZN12SerialEngine19solve_serial_engineERN3thc10ChessRulesEbRNS2_4MoveEiiffE3$_2PNS_4pairIfS5_EEEEvT0_SC_T_', symObjAddr: 0x2D22C, symBinAddr: 0x100033070, symSize: 0x68 }
  - { offsetInCU: 0xC0B1, offset: 0x18B93, size: 0x8, addend: 0x0, symName: '__ZNSt3__124__sort3_maybe_branchlessB7v160006INS_17_ClassicAlgPolicyERZN12SerialEngine19solve_serial_engineERN3thc10ChessRulesEbRNS3_4MoveEiiffE3$_2PNS_4pairIfS6_EEEENS_9enable_ifIXntsr21__use_branchless_sortIT0_T1_EE5valueEvE4typeESF_SF_SF_SE_', symObjAddr: 0x2F250, symBinAddr: 0x100035094, symSize: 0x3C }
  - { offsetInCU: 0xC123, offset: 0x18C05, size: 0x8, addend: 0x0, symName: '__ZNSt3__124__sort4_maybe_branchlessB7v160006INS_17_ClassicAlgPolicyERZN12SerialEngine19solve_serial_engineERN3thc10ChessRulesEbRNS3_4MoveEiiffE3$_2PNS_4pairIfS6_EEEENS_9enable_ifIXntsr21__use_branchless_sortIT0_T1_EE5valueEvE4typeESF_SF_SF_SF_SE_', symObjAddr: 0x2F28C, symBinAddr: 0x1000350D0, symSize: 0x44 }
  - { offsetInCU: 0xC1A9, offset: 0x18C8B, size: 0x8, addend: 0x0, symName: '__ZNSt3__124__sort5_maybe_branchlessB7v160006INS_17_ClassicAlgPolicyERZN12SerialEngine19solve_serial_engineERN3thc10ChessRulesEbRNS3_4MoveEiiffE3$_2PNS_4pairIfS6_EEEENS_9enable_ifIXntsr21__use_branchless_sortIT0_T1_EE5valueEvE4typeESF_SF_SF_SF_SF_SE_', symObjAddr: 0x2F2D0, symBinAddr: 0x100035114, symSize: 0x4C }
  - { offsetInCU: 0xC23E, offset: 0x18D20, size: 0x8, addend: 0x0, symName: '__ZNSt3__114__partial_sortB7v160006INS_17_ClassicAlgPolicyERZN12SerialEngine19solve_serial_engineERN3thc10ChessRulesEbRNS3_4MoveEiiffE3$_2PNS_4pairIfS6_EESC_EET1_SD_SD_T2_RT0_', symObjAddr: 0x2F88C, symBinAddr: 0x1000356D0, symSize: 0x94 }
  - { offsetInCU: 0xC2C8, offset: 0x18DAA, size: 0x8, addend: 0x0, symName: '__ZNSt3__119__sort5_wrap_policyB7v160006INS_17_ClassicAlgPolicyERZN12SerialEngine19solve_serial_engineERN3thc10ChessRulesEbRNS3_4MoveEiiffE3$_2PNS_4pairIfS6_EEEEjT1_SD_SD_SD_SD_T0_', symObjAddr: 0x2F920, symBinAddr: 0x100035764, symSize: 0x54 }
  - { offsetInCU: 0xC370, offset: 0x18E52, size: 0x8, addend: 0x0, symName: '__ZNSt3__17__sort3B7v160006INS_17_ClassicAlgPolicyERZN12SerialEngine19solve_serial_engineERN3thc10ChessRulesEbRNS3_4MoveEiiffE3$_2PNS_4pairIfS6_EEEEjT1_SD_SD_T0_', symObjAddr: 0x2F974, symBinAddr: 0x1000357B8, symSize: 0x66C }
  - { offsetInCU: 0xC3FF, offset: 0x18EE1, size: 0x8, addend: 0x0, symName: '__ZNSt3__17__sort4B7v160006INS_17_ClassicAlgPolicyERZN12SerialEngine19solve_serial_engineERN3thc10ChessRulesEbRNS3_4MoveEiiffE3$_2PNS_4pairIfS6_EEEEjT1_SD_SD_SD_T0_', symObjAddr: 0x30C00, symBinAddr: 0x100036A44, symSize: 0x608 }
  - { offsetInCU: 0xC4A1, offset: 0x18F83, size: 0x8, addend: 0x0, symName: '__ZNSt3__119__partial_sort_implB7v160006INS_17_ClassicAlgPolicyERZN12SerialEngine19solve_serial_engineERN3thc10ChessRulesEbRNS3_4MoveEiiffE3$_2PNS_4pairIfS6_EESC_EET1_SD_SD_T2_OT0_', symObjAddr: 0x31208, symBinAddr: 0x10003704C, symSize: 0x59C }
  - { offsetInCU: 0xC546, offset: 0x19028, size: 0x8, addend: 0x0, symName: '__ZNSt3__111__make_heapB7v160006INS_17_ClassicAlgPolicyERZN12SerialEngine19solve_serial_engineERN3thc10ChessRulesEbRNS3_4MoveEiiffE3$_2PNS_4pairIfS6_EEEEvT1_SD_OT0_', symObjAddr: 0x317A4, symBinAddr: 0x1000375E8, symSize: 0xBC }
  - { offsetInCU: 0xC5EC, offset: 0x190CE, size: 0x8, addend: 0x0, symName: '__ZNSt3__111__sort_heapB7v160006INS_17_ClassicAlgPolicyERZN12SerialEngine19solve_serial_engineERN3thc10ChessRulesEbRNS3_4MoveEiiffE3$_2PNS_4pairIfS6_EEEEvT1_SD_OT0_', symObjAddr: 0x31FE8, symBinAddr: 0x100037E2C, symSize: 0x94 }
  - { offsetInCU: 0xC683, offset: 0x19165, size: 0x8, addend: 0x0, symName: '__ZNSt3__110__pop_heapB7v160006INS_17_ClassicAlgPolicyEZN12SerialEngine19solve_serial_engineERN3thc10ChessRulesEbRNS3_4MoveEiiffE3$_2PNS_4pairIfS6_EEEEvT1_SC_RT0_NS_15iterator_traitsISC_E15difference_typeE', symObjAddr: 0x3207C, symBinAddr: 0x100037EC0, symSize: 0x460 }
  - { offsetInCU: 0xC73F, offset: 0x19221, size: 0x8, addend: 0x0, symName: '__ZNSt3__19__sift_upB7v160006INS_17_ClassicAlgPolicyERZN12SerialEngine19solve_serial_engineERN3thc10ChessRulesEbRNS3_4MoveEiiffE3$_2PNS_4pairIfS6_EEEEvT1_SD_OT0_NS_15iterator_traitsISD_E15difference_typeE', symObjAddr: 0x328A8, symBinAddr: 0x1000386EC, symSize: 0x54C }
  - { offsetInCU: 0xC7F1, offset: 0x192D3, size: 0x8, addend: 0x0, symName: '__ZNSt3__17__sort5IRZN12SerialEngine19solve_serial_engineERN3thc10ChessRulesEbRNS2_4MoveEiiffE3$_2PNS_4pairIfS5_EEEEjT0_SC_SC_SC_SC_T_', symObjAddr: 0x32DF4, symBinAddr: 0x100038C38, symSize: 0x760 }
  - { offsetInCU: 0xCBE8, offset: 0x196CA, size: 0x8, addend: 0x0, symName: __ZSt28__throw_bad_array_new_lengthB7v160006v, symObjAddr: 0x1267C, symBinAddr: 0x10001A4AC, symSize: 0x38 }
  - { offsetInCU: 0xD073, offset: 0x19B55, size: 0x8, addend: 0x0, symName: __ZNKSt3__16chrono15__duration_castINS0_8durationIxNS_5ratioILl1ELl1000000000EEEEENS2_IdNS3_ILl1ELl1EEEEES4_Lb1ELb0EEclB7v160006ERKS5_, symObjAddr: 0xC7B0, symBinAddr: 0x100015918, symSize: 0x2A0 }
  - { offsetInCU: 0xD113, offset: 0x19BF5, size: 0x8, addend: 0x0, symName: __ZNSt3__16vectorIiNS_9allocatorIiEEE26__swap_out_circular_bufferERNS_14__split_bufferIiRS2_EE, symObjAddr: 0x10DB4, symBinAddr: 0x100018BE4, symSize: 0x574 }
  - { offsetInCU: 0xD185, offset: 0x19C67, size: 0x8, addend: 0x0, symName: __ZNSt3__16vectorIN3thc4MoveENS_9allocatorIS2_EEE26__swap_out_circular_bufferERNS_14__split_bufferIS2_RS4_EE, symObjAddr: 0x19FB0, symBinAddr: 0x10001FDF4, symSize: 0x574 }
  - { offsetInCU: 0xD36E, offset: 0x19E50, size: 0x8, addend: 0x0, symName: __ZNSt3__16vectorINS_4pairIfN3thc4MoveEEENS_9allocatorIS4_EEE26__swap_out_circular_bufferERNS_14__split_bufferIS4_RS6_EE, symObjAddr: 0x21104, symBinAddr: 0x100026F48, symSize: 0x574 }
  - { offsetInCU: 0xE97B, offset: 0x1B45D, size: 0x8, addend: 0x0, symName: __Z7isloweri, symObjAddr: 0x38CC, symBinAddr: 0x10000CF88, symSize: 0x28 }
  - { offsetInCU: 0xE9E8, offset: 0x1B4CA, size: 0x8, addend: 0x0, symName: __Z7isupperi, symObjAddr: 0x2C30, symBinAddr: 0x10000C880, symSize: 0x28 }
  - { offsetInCU: 0xEA2C, offset: 0x1B50E, size: 0x8, addend: 0x0, symName: __Z7toloweri, symObjAddr: 0x2C0C, symBinAddr: 0x10000C85C, symSize: 0x24 }
  - { offsetInCU: 0xF2D3, offset: 0x1BDB5, size: 0x8, addend: 0x0, symName: __ZN12SerialEngineC2Ev, symObjAddr: 0x0, symBinAddr: 0x100009CDC, symSize: 0x64 }
  - { offsetInCU: 0xF2FF, offset: 0x1BDE1, size: 0x8, addend: 0x0, symName: __ZNSt3__16chrono10time_pointINS0_12steady_clockENS0_8durationIxNS_5ratioILl1ELl1000000000EEEEEEC1B7v160006Ev, symObjAddr: 0x64, symBinAddr: 0x100009D40, symSize: 0x2C }
  - { offsetInCU: 0xF329, offset: 0x1BE0B, size: 0x8, addend: 0x0, symName: __ZNSt3__16atomicIbEaSB7v160006Eb, symObjAddr: 0x90, symBinAddr: 0x100009D6C, symSize: 0x44 }
  - { offsetInCU: 0xF35E, offset: 0x1BE40, size: 0x8, addend: 0x0, symName: __ZN12SerialEngine12init_zobristEv, symObjAddr: 0xD4, symBinAddr: 0x100009DB0, symSize: 0x454 }
  - { offsetInCU: 0xF412, offset: 0x1BEF4, size: 0x8, addend: 0x0, symName: __ZN12SerialEngine24init_transposition_tableEv, symObjAddr: 0x528, symBinAddr: 0x10000A204, symSize: 0x26C }
  - { offsetInCU: 0xF457, offset: 0x1BF39, size: 0x8, addend: 0x0, symName: __ZN12SerialEngineC1Ev, symObjAddr: 0x794, symBinAddr: 0x10000A470, symSize: 0x2C }
  - { offsetInCU: 0xF483, offset: 0x1BF65, size: 0x8, addend: 0x0, symName: __ZN12SerialEngineD2Ev, symObjAddr: 0x7C0, symBinAddr: 0x10000A49C, symSize: 0x14 }
  - { offsetInCU: 0xF4AF, offset: 0x1BF91, size: 0x8, addend: 0x0, symName: __ZN12SerialEngineD1Ev, symObjAddr: 0x7D4, symBinAddr: 0x10000A4B0, symSize: 0x2C }
  - { offsetInCU: 0xF4DB, offset: 0x1BFBD, size: 0x8, addend: 0x0, symName: __ZNSt3__123mersenne_twister_engineIyLm64ELm312ELm156ELm31ELy13043109905998158313ELm29ELy6148914691236517205ELm17ELy8202884508482404352ELm37ELy18444473444759240704ELm43ELy6364136223846793005EEC1B7v160006Ey, symObjAddr: 0x800, symBinAddr: 0x10000A4DC, symSize: 0x34 }
  - { offsetInCU: 0xF513, offset: 0x1BFF5, size: 0x8, addend: 0x0, symName: __ZNSt3__123mersenne_twister_engineIyLm64ELm312ELm156ELm31ELy13043109905998158313ELm29ELy6148914691236517205ELm17ELy8202884508482404352ELm37ELy18444473444759240704ELm43ELy6364136223846793005EEclEv, symObjAddr: 0x834, symBinAddr: 0x10000A510, symSize: 0x454 }
  - { offsetInCU: 0xF586, offset: 0x1C068, size: 0x8, addend: 0x0, symName: __ZN3thc4Move7InvalidEv, symObjAddr: 0xC88, symBinAddr: 0x10000A964, symSize: 0xA8 }
  - { offsetInCU: 0xF5AC, offset: 0x1C08E, size: 0x8, addend: 0x0, symName: __ZN12SerialEngine19compute_zobrist_keyERKN3thc10ChessRulesE, symObjAddr: 0xD30, symBinAddr: 0x10000AA0C, symSize: 0x760 }
  - { offsetInCU: 0xF6B8, offset: 0x1C19A, size: 0x8, addend: 0x0, symName: '__ZZN12SerialEngine19compute_zobrist_keyERKN3thc10ChessRulesEENK3$_0clEc', symObjAddr: 0x1490, symBinAddr: 0x10000B16C, symSize: 0x10C }
  - { offsetInCU: 0xF71D, offset: 0x1C1FF, size: 0x8, addend: 0x0, symName: __ZN12SerialEngine8probe_ttEy, symObjAddr: 0x166C, symBinAddr: 0x10000B2BC, symSize: 0xCC }
  - { offsetInCU: 0xF771, offset: 0x1C253, size: 0x8, addend: 0x0, symName: __ZN12SerialEngine8store_ttEyiiNS_7TTEntry9BoundTypeERKN3thc4MoveE, symObjAddr: 0x1738, symBinAddr: 0x10000B388, symSize: 0x2A8 }
  - { offsetInCU: 0xF7FD, offset: 0x1C2DF, size: 0x8, addend: 0x0, symName: __ZN12SerialEngine10score_moveERKN3thc4MoveERNS0_10ChessRulesE, symObjAddr: 0x19E0, symBinAddr: 0x10000B630, symSize: 0x1160 }
  - { offsetInCU: 0xF8AC, offset: 0x1C38E, size: 0x8, addend: 0x0, symName: __ZN12SerialEngine17evaluate_mobilityERN3thc10ChessRulesEbRKNSt3__16vectorIiNS3_9allocatorIiEEEE, symObjAddr: 0x2C58, symBinAddr: 0x10000C8A8, symSize: 0x668 }
  - { offsetInCU: 0xF9C7, offset: 0x1C4A9, size: 0x8, addend: 0x0, symName: __ZN3thc10ChessRulesC1ERKS0_, symObjAddr: 0x3304, symBinAddr: 0x10000CF54, symSize: 0x34 }
  - { offsetInCU: 0xF9FD, offset: 0x1C4DF, size: 0x8, addend: 0x0, symName: __ZN12SerialEngine23evaluate_pawn_structureERKNSt3__16vectorIiNS0_9allocatorIiEEEEb, symObjAddr: 0x39B4, symBinAddr: 0x10000CFB0, symSize: 0x850 }
  - { offsetInCU: 0xFB41, offset: 0x1C623, size: 0x8, addend: 0x0, symName: __ZNKSt3__16vectorIiNS_9allocatorIiEEE5beginB7v160006Ev, symObjAddr: 0x4204, symBinAddr: 0x10000D800, symSize: 0x268 }
  - { offsetInCU: 0xFB6A, offset: 0x1C64C, size: 0x8, addend: 0x0, symName: __ZNKSt3__16vectorIiNS_9allocatorIiEEE3endB7v160006Ev, symObjAddr: 0x446C, symBinAddr: 0x10000DA68, symSize: 0x26C }
  - { offsetInCU: 0xFB93, offset: 0x1C675, size: 0x8, addend: 0x0, symName: __ZNKSt3__111__wrap_iterIPKiEdeB7v160006Ev, symObjAddr: 0x470C, symBinAddr: 0x10000DD08, symSize: 0x60 }
  - { offsetInCU: 0xFBB9, offset: 0x1C69B, size: 0x8, addend: 0x0, symName: __ZNSt3__111__wrap_iterIPKiEppB7v160006Ev, symObjAddr: 0x476C, symBinAddr: 0x10000DD68, symSize: 0x68 }
  - { offsetInCU: 0xFBDF, offset: 0x1C6C1, size: 0x8, addend: 0x0, symName: __ZN12SerialEngine20evaluate_king_safetyERN3thc10ChessRulesEibb, symObjAddr: 0x47D4, symBinAddr: 0x10000DDD0, symSize: 0x2A4 }
  - { offsetInCU: 0xFD04, offset: 0x1C7E6, size: 0x8, addend: 0x0, symName: __ZN12SerialEngine22evaluate_king_activityEiib, symObjAddr: 0x4A78, symBinAddr: 0x10000E074, symSize: 0x15C }
  - { offsetInCU: 0xFDE1, offset: 0x1C8C3, size: 0x8, addend: 0x0, symName: __Z3absB7v160006f, symObjAddr: 0x4BD4, symBinAddr: 0x10000E1D0, symSize: 0x18 }
  - { offsetInCU: 0xFE0D, offset: 0x1C8EF, size: 0x8, addend: 0x0, symName: __ZN12SerialEngine10is_endgameEii, symObjAddr: 0x4BEC, symBinAddr: 0x10000E1E8, symSize: 0x38 }
  - { offsetInCU: 0xFE63, offset: 0x1C945, size: 0x8, addend: 0x0, symName: __ZN12SerialEngine11static_evalERN3thc10ChessRulesE, symObjAddr: 0x4C24, symBinAddr: 0x10000E220, symSize: 0x1464 }
  - { offsetInCU: 0x10013, offset: 0x1CAF5, size: 0x8, addend: 0x0, symName: __ZNSt3__16vectorIiNS_9allocatorIiEEEC1B7v160006Ev, symObjAddr: 0x60CC, symBinAddr: 0x10000F6C8, symSize: 0x2C }
  - { offsetInCU: 0x1003D, offset: 0x1CB1F, size: 0x8, addend: 0x0, symName: __ZNSt3__16vectorIiNS_9allocatorIiEEE9push_backB7v160006EOi, symObjAddr: 0x60F8, symBinAddr: 0x10000F6F4, symSize: 0xE0 }
  - { offsetInCU: 0x10074, offset: 0x1CB56, size: 0x8, addend: 0x0, symName: __ZNSt3__16vectorIiNS_9allocatorIiEEE9push_backB7v160006ERKi, symObjAddr: 0x61D8, symBinAddr: 0x10000F7D4, symSize: 0xE0 }
  - { offsetInCU: 0x100AB, offset: 0x1CB8D, size: 0x8, addend: 0x0, symName: __ZNSt3__16vectorIiNS_9allocatorIiEEED1B7v160006Ev, symObjAddr: 0x62B8, symBinAddr: 0x10000F8B4, symSize: 0x2C }
  - { offsetInCU: 0x100D5, offset: 0x1CBB7, size: 0x8, addend: 0x0, symName: __ZN12SerialEngine5solveERN3thc10ChessRulesEb, symObjAddr: 0x62E4, symBinAddr: 0x10000F8E0, symSize: 0x820 }
  - { offsetInCU: 0x101CA, offset: 0x1CCAC, size: 0x8, addend: 0x0, symName: __ZNKSt3__113__atomic_baseIbLb0EEcvbB7v160006Ev, symObjAddr: 0x6B04, symBinAddr: 0x100010100, symSize: 0x2C }
  - { offsetInCU: 0x101F0, offset: 0x1CCD2, size: 0x8, addend: 0x0, symName: __ZN12SerialEngine19solve_serial_engineERN3thc10ChessRulesEbRNS0_4MoveEiiff, symObjAddr: 0x6B30, symBinAddr: 0x10001012C, symSize: 0x24B4 }
  - { offsetInCU: 0x10473, offset: 0x1CF55, size: 0x8, addend: 0x0, symName: __ZNSt3__16chrono8durationIdNS_5ratioILl1ELl1EEEEC1B7v160006IxNS2_ILl1ELl1000000000EEEEERKNS1_IT_T0_EEPNS_9enable_ifIXaasr13__no_overflowIS8_S3_EE5valueooL_ZNS_17integral_constantIbLb1EE5valueEEaaeqsr13__no_overflowIS8_S3_E4typeE3denLi1Entsr23treat_as_floating_pointIS7_EE5valueEvE4typeE, symObjAddr: 0x931C, symBinAddr: 0x100012918, symSize: 0x3C }
  - { offsetInCU: 0x104CA, offset: 0x1CFAC, size: 0x8, addend: 0x0, symName: __ZNKSt3__16chrono8durationIdNS_5ratioILl1ELl1EEEE5countB7v160006Ev, symObjAddr: 0x93A0, symBinAddr: 0x100012954, symSize: 0x60 }
  - { offsetInCU: 0x104F0, offset: 0x1CFD2, size: 0x8, addend: 0x0, symName: __ZNKSt3__16vectorIN3thc4MoveENS_9allocatorIS2_EEE5emptyB7v160006Ev, symObjAddr: 0x9500, symBinAddr: 0x1000129B4, symSize: 0xB0 }
  - { offsetInCU: 0x10516, offset: 0x1CFF8, size: 0x8, addend: 0x0, symName: __ZNSt3__16vectorIN3thc4MoveENS_9allocatorIS2_EEEixB7v160006Em, symObjAddr: 0x95B0, symBinAddr: 0x100012A64, symSize: 0x6C }
  - { offsetInCU: 0x1054D, offset: 0x1D02F, size: 0x8, addend: 0x0, symName: __ZN12SerialEngine7quiesceERN3thc10ChessRulesEff, symObjAddr: 0x961C, symBinAddr: 0x100012AD0, symSize: 0xCA8 }
  - { offsetInCU: 0x1076B, offset: 0x1D24D, size: 0x8, addend: 0x0, symName: __ZNSt3__16vectorIN3thc4MoveENS_9allocatorIS2_EEE9push_backB7v160006ERKS2_, symObjAddr: 0xA2C4, symBinAddr: 0x100013778, symSize: 0xE0 }
  - { offsetInCU: 0x107A2, offset: 0x1D284, size: 0x8, addend: 0x0, symName: __ZNSt3__16vectorINS_4pairIfN3thc4MoveEEENS_9allocatorIS4_EEEC1B7v160006Ev, symObjAddr: 0xA3A4, symBinAddr: 0x100013858, symSize: 0x2C }
  - { offsetInCU: 0x107D1, offset: 0x1D2B3, size: 0x8, addend: 0x0, symName: __ZNSt3__16vectorINS_4pairIfN3thc4MoveEEENS_9allocatorIS4_EEE12emplace_backIJRfRS3_EEERS4_DpOT_, symObjAddr: 0xA3D0, symBinAddr: 0x100013884, symSize: 0xF4 }
  - { offsetInCU: 0x10827, offset: 0x1D309, size: 0x8, addend: 0x0, symName: __ZNSt3__16vectorINS_4pairIfN3thc4MoveEEENS_9allocatorIS4_EEE5beginB7v160006Ev, symObjAddr: 0xA830, symBinAddr: 0x100013CE4, symSize: 0x268 }
  - { offsetInCU: 0x10850, offset: 0x1D332, size: 0x8, addend: 0x0, symName: __ZNSt3__16vectorINS_4pairIfN3thc4MoveEEENS_9allocatorIS4_EEE3endB7v160006Ev, symObjAddr: 0xAA98, symBinAddr: 0x100013F4C, symSize: 0x26C }
  - { offsetInCU: 0x10879, offset: 0x1D35B, size: 0x8, addend: 0x0, symName: __ZNKSt3__111__wrap_iterIPNS_4pairIfN3thc4MoveEEEEdeB7v160006Ev, symObjAddr: 0xAD38, symBinAddr: 0x1000141EC, symSize: 0x60 }
  - { offsetInCU: 0x1089F, offset: 0x1D381, size: 0x8, addend: 0x0, symName: __ZNSt3__111__wrap_iterIPNS_4pairIfN3thc4MoveEEEEppB7v160006Ev, symObjAddr: 0xAD98, symBinAddr: 0x10001424C, symSize: 0x68 }
  - { offsetInCU: 0x108C5, offset: 0x1D3A7, size: 0x8, addend: 0x0, symName: __ZNSt3__16vectorINS_4pairIfN3thc4MoveEEENS_9allocatorIS4_EEED1B7v160006Ev, symObjAddr: 0xAE00, symBinAddr: 0x1000142B4, symSize: 0x2C }
  - { offsetInCU: 0x108F4, offset: 0x1D3D6, size: 0x8, addend: 0x0, symName: __ZNSt3__16vectorINS_4pairIfN3thc4MoveEEENS_9allocatorIS4_EEE12emplace_backIJfRS3_EEERS4_DpOT_, symObjAddr: 0xAE84, symBinAddr: 0x100014338, symSize: 0xF4 }
  - { offsetInCU: 0x1094A, offset: 0x1D42C, size: 0x8, addend: 0x0, symName: __ZNSt3__16chrono10time_pointINS0_12steady_clockENS0_8durationIxNS_5ratioILl1ELl1000000000EEEEEEC2B7v160006Ev, symObjAddr: 0xB2E4, symBinAddr: 0x100014798, symSize: 0x78 }
  - { offsetInCU: 0x10974, offset: 0x1D456, size: 0x8, addend: 0x0, symName: __ZNSt3__16chrono8durationIxNS_5ratioILl1ELl1000000000EEEE4zeroB7v160006Ev, symObjAddr: 0xB35C, symBinAddr: 0x100014810, symSize: 0x298 }
  - { offsetInCU: 0x10988, offset: 0x1D46A, size: 0x8, addend: 0x0, symName: __ZNSt3__16chrono15duration_valuesIxE4zeroB7v160006Ev, symObjAddr: 0xB5F4, symBinAddr: 0x100014AA8, symSize: 0x8 }
  - { offsetInCU: 0x109A6, offset: 0x1D488, size: 0x8, addend: 0x0, symName: __ZNSt3__16chrono8durationIxNS_5ratioILl1ELl1000000000EEEEC1B7v160006IxEERKT_PNS_9enable_ifIXaasr14is_convertibleIS8_xEE5valueooL_ZNS_17integral_constantIbLb0EE5valueEEntsr23treat_as_floating_pointIS6_EE5valueEvE4typeE, symObjAddr: 0xB5FC, symBinAddr: 0x100014AB0, symSize: 0x3C }
  - { offsetInCU: 0x109F3, offset: 0x1D4D5, size: 0x8, addend: 0x0, symName: __ZNSt3__16chrono8durationIxNS_5ratioILl1ELl1000000000EEEEC2B7v160006IxEERKT_PNS_9enable_ifIXaasr14is_convertibleIS8_xEE5valueooL_ZNS_17integral_constantIbLb0EE5valueEEntsr23treat_as_floating_pointIS6_EE5valueEvE4typeE, symObjAddr: 0xB644, symBinAddr: 0x100014AEC, symSize: 0xB4 }
  - { offsetInCU: 0x10A3F, offset: 0x1D521, size: 0x8, addend: 0x0, symName: __Z8__istypeim, symObjAddr: 0xB6F8, symBinAddr: 0x100014BA0, symSize: 0xFC }
  - { offsetInCU: 0x10A7A, offset: 0x1D55C, size: 0x8, addend: 0x0, symName: __Z7isasciii, symObjAddr: 0xB7F4, symBinAddr: 0x100014C9C, symSize: 0x24 }
  - { offsetInCU: 0x10AA6, offset: 0x1D588, size: 0x8, addend: 0x0, symName: __ZN3thc10ChessRulesC2ERKS0_, symObjAddr: 0xB818, symBinAddr: 0x100014CC0, symSize: 0xA4 }
  - { offsetInCU: 0x10ADC, offset: 0x1D5BE, size: 0x8, addend: 0x0, symName: __ZN3thc13ChessPositionC2ERKS0_, symObjAddr: 0xB8BC, symBinAddr: 0x100014D64, symSize: 0x98 }
  - { offsetInCU: 0x10B15, offset: 0x1D5F7, size: 0x8, addend: 0x0, symName: __ZNKSt3__111__wrap_iterIPKiE4baseB7v160006Ev, symObjAddr: 0xBCDC, symBinAddr: 0x100014E44, symSize: 0x60 }
  - { offsetInCU: 0x10B3B, offset: 0x1D61D, size: 0x8, addend: 0x0, symName: __ZNKSt3__16chrono10time_pointINS0_12steady_clockENS0_8durationIxNS_5ratioILl1ELl1000000000EEEEEE16time_since_epochB7v160006Ev, symObjAddr: 0xC070, symBinAddr: 0x1000151D8, symSize: 0x1FC }
  - { offsetInCU: 0x10B62, offset: 0x1D644, size: 0x8, addend: 0x0, symName: __ZNKSt3__16chrono8durationIxNS_5ratioILl1ELl1000000000EEEE5countB7v160006Ev, symObjAddr: 0xC26C, symBinAddr: 0x1000153D4, symSize: 0x60 }
  - { offsetInCU: 0x10B88, offset: 0x1D66A, size: 0x8, addend: 0x0, symName: __ZNSt3__16chrono8durationIdNS_5ratioILl1ELl1EEEEC2B7v160006IxNS2_ILl1ELl1000000000EEEEERKNS1_IT_T0_EEPNS_9enable_ifIXaasr13__no_overflowIS8_S3_EE5valueooL_ZNS_17integral_constantIbLb1EE5valueEEaaeqsr13__no_overflowIS8_S3_E4typeE3denLi1Entsr23treat_as_floating_pointIS7_EE5valueEvE4typeE, symObjAddr: 0xC2CC, symBinAddr: 0x100015434, symSize: 0x268 }
  - { offsetInCU: 0x10BEC, offset: 0x1D6CE, size: 0x8, addend: 0x0, symName: __ZNSt3__16chrono8durationIdNS_5ratioILl1ELl1EEEEC1B7v160006IdEERKT_PNS_9enable_ifIXaasr14is_convertibleIS8_dEE5valueooL_ZNS_17integral_constantIbLb1EE5valueEEntsr23treat_as_floating_pointIS6_EE5valueEvE4typeE, symObjAddr: 0xCA50, symBinAddr: 0x100015BB8, symSize: 0x3C }
  - { offsetInCU: 0x10C39, offset: 0x1D71B, size: 0x8, addend: 0x0, symName: __ZNSt3__16chrono8durationIdNS_5ratioILl1ELl1EEEEC2B7v160006IdEERKT_PNS_9enable_ifIXaasr14is_convertibleIS8_dEE5valueooL_ZNS_17integral_constantIbLb1EE5valueEEntsr23treat_as_floating_pointIS6_EE5valueEvE4typeE, symObjAddr: 0xCA8C, symBinAddr: 0x100015BF4, symSize: 0xB4 }
  - { offsetInCU: 0x10C86, offset: 0x1D768, size: 0x8, addend: 0x0, symName: __ZNKSt3__111__wrap_iterIPNS_4pairIfN3thc4MoveEEEE4baseB7v160006Ev, symObjAddr: 0xCB88, symBinAddr: 0x100015CF0, symSize: 0x60 }
  - { offsetInCU: 0x10CC0, offset: 0x1D7A2, size: 0x8, addend: 0x0, symName: __ZNKSt3__16__lessIffEclB7v160006ERKfS3_, symObjAddr: 0xCDD0, symBinAddr: 0x100015F38, symSize: 0x10C }
  - { offsetInCU: 0x10D02, offset: 0x1D7E4, size: 0x8, addend: 0x0, symName: __ZNSt3__113__atomic_baseIbLb0EE5storeB7v160006EbNS_12memory_orderE, symObjAddr: 0xD0C4, symBinAddr: 0x10001622C, symSize: 0x40 }
  - { offsetInCU: 0x10D46, offset: 0x1D828, size: 0x8, addend: 0x0, symName: __ZNSt3__123mersenne_twister_engineIyLm64ELm312ELm156ELm31ELy13043109905998158313ELm29ELy6148914691236517205ELm17ELy8202884508482404352ELm37ELy18444473444759240704ELm43ELy6364136223846793005EEC2B7v160006Ey, symObjAddr: 0xD2C4, symBinAddr: 0x10001642C, symSize: 0x34 }
  - { offsetInCU: 0x10D7E, offset: 0x1D860, size: 0x8, addend: 0x0, symName: __ZNSt3__123mersenne_twister_engineIyLm64ELm312ELm156ELm31ELy13043109905998158313ELm29ELy6148914691236517205ELm17ELy8202884508482404352ELm37ELy18444473444759240704ELm43ELy6364136223846793005EE4seedEy, symObjAddr: 0xD2F8, symBinAddr: 0x100016460, symSize: 0x200 }
  - { offsetInCU: 0x10DD1, offset: 0x1D8B3, size: 0x8, addend: 0x0, symName: __ZNSt3__123mersenne_twister_engineIyLm64ELm312ELm156ELm31ELy13043109905998158313ELm29ELy6148914691236517205ELm17ELy8202884508482404352ELm37ELy18444473444759240704ELm43ELy6364136223846793005EE8__rshiftB7v160006ILm62EEENS_9enable_ifIXltT_L_ZNS1_3_DtEEEyE4typeEy, symObjAddr: 0xD4F8, symBinAddr: 0x100016660, symSize: 0x18 }
  - { offsetInCU: 0x10DFE, offset: 0x1D8E0, size: 0x8, addend: 0x0, symName: __ZNSt3__123mersenne_twister_engineIyLm64ELm312ELm156ELm31ELy13043109905998158313ELm29ELy6148914691236517205ELm17ELy8202884508482404352ELm37ELy18444473444759240704ELm43ELy6364136223846793005EE8__rshiftB7v160006ILm1EEENS_9enable_ifIXltT_L_ZNS1_3_DtEEEyE4typeEy, symObjAddr: 0xD510, symBinAddr: 0x100016678, symSize: 0x18 }
  - { offsetInCU: 0x10E2B, offset: 0x1D90D, size: 0x8, addend: 0x0, symName: __ZNSt3__123mersenne_twister_engineIyLm64ELm312ELm156ELm31ELy13043109905998158313ELm29ELy6148914691236517205ELm17ELy8202884508482404352ELm37ELy18444473444759240704ELm43ELy6364136223846793005EE8__rshiftB7v160006ILm29EEENS_9enable_ifIXltT_L_ZNS1_3_DtEEEyE4typeEy, symObjAddr: 0xD528, symBinAddr: 0x100016690, symSize: 0x18 }
  - { offsetInCU: 0x10E58, offset: 0x1D93A, size: 0x8, addend: 0x0, symName: __ZNSt3__123mersenne_twister_engineIyLm64ELm312ELm156ELm31ELy13043109905998158313ELm29ELy6148914691236517205ELm17ELy8202884508482404352ELm37ELy18444473444759240704ELm43ELy6364136223846793005EE8__lshiftB7v160006ILm17EEENS_9enable_ifIXltT_Lm64EEyE4typeEy, symObjAddr: 0xD540, symBinAddr: 0x1000166A8, symSize: 0x1C }
  - { offsetInCU: 0x10E85, offset: 0x1D967, size: 0x8, addend: 0x0, symName: __ZNSt3__123mersenne_twister_engineIyLm64ELm312ELm156ELm31ELy13043109905998158313ELm29ELy6148914691236517205ELm17ELy8202884508482404352ELm37ELy18444473444759240704ELm43ELy6364136223846793005EE8__lshiftB7v160006ILm37EEENS_9enable_ifIXltT_Lm64EEyE4typeEy, symObjAddr: 0xD55C, symBinAddr: 0x1000166C4, symSize: 0x1C }
  - { offsetInCU: 0x10EB2, offset: 0x1D994, size: 0x8, addend: 0x0, symName: __ZNSt3__123mersenne_twister_engineIyLm64ELm312ELm156ELm31ELy13043109905998158313ELm29ELy6148914691236517205ELm17ELy8202884508482404352ELm37ELy18444473444759240704ELm43ELy6364136223846793005EE8__rshiftB7v160006ILm43EEENS_9enable_ifIXltT_L_ZNS1_3_DtEEEyE4typeEy, symObjAddr: 0xD578, symBinAddr: 0x1000166E0, symSize: 0x18 }
  - { offsetInCU: 0x10EE9, offset: 0x1D9CB, size: 0x8, addend: 0x0, symName: __ZNKSt3__16vectorIiNS_9allocatorIiEEE11__make_iterB7v160006EPKi, symObjAddr: 0xE8C8, symBinAddr: 0x1000166F8, symSize: 0x200 }
  - { offsetInCU: 0x10F20, offset: 0x1DA02, size: 0x8, addend: 0x0, symName: __ZNSt3__111__wrap_iterIPKiEC1B7v160006EPKvS2_, symObjAddr: 0xEAC8, symBinAddr: 0x1000168F8, symSize: 0x3C }
  - { offsetInCU: 0x10F66, offset: 0x1DA48, size: 0x8, addend: 0x0, symName: __ZNSt3__111__wrap_iterIPKiEC2B7v160006EPKvS2_, symObjAddr: 0xEB04, symBinAddr: 0x100016934, symSize: 0x74 }
  - { offsetInCU: 0x10FAC, offset: 0x1DA8E, size: 0x8, addend: 0x0, symName: __ZNSt3__16vectorIiNS_9allocatorIiEEEC2B7v160006Ev, symObjAddr: 0xEB78, symBinAddr: 0x1000169A8, symSize: 0x2F4 }
  - { offsetInCU: 0x10FD7, offset: 0x1DAB9, size: 0x8, addend: 0x0, symName: __ZNSt3__117__compressed_pairIPiNS_9allocatorIiEEEC1B7v160006IDnNS_18__default_init_tagEEEOT_OT0_, symObjAddr: 0xEE6C, symBinAddr: 0x100016C9C, symSize: 0x3C }
  - { offsetInCU: 0x1102F, offset: 0x1DB11, size: 0x8, addend: 0x0, symName: __ZNSt3__117__compressed_pairIPiNS_9allocatorIiEEEC2B7v160006IDnNS_18__default_init_tagEEEOT_OT0_, symObjAddr: 0xEEB8, symBinAddr: 0x100016CE8, symSize: 0x40 }
  - { offsetInCU: 0x11087, offset: 0x1DB69, size: 0x8, addend: 0x0, symName: __ZNSt3__122__compressed_pair_elemIPiLi0ELb0EEC2B7v160006IDnvEEOT_, symObjAddr: 0xEEF8, symBinAddr: 0x100016D28, symSize: 0x64 }
  - { offsetInCU: 0x110C9, offset: 0x1DBAB, size: 0x8, addend: 0x0, symName: __ZNSt3__122__compressed_pair_elemINS_9allocatorIiEELi1ELb1EEC2B7v160006ENS_18__default_init_tagE, symObjAddr: 0xEF5C, symBinAddr: 0x100016D8C, symSize: 0x2C }
  - { offsetInCU: 0x110FE, offset: 0x1DBE0, size: 0x8, addend: 0x0, symName: __ZNSt3__19allocatorIiEC2B7v160006Ev, symObjAddr: 0xEF88, symBinAddr: 0x100016DB8, symSize: 0x2C }
  - { offsetInCU: 0x11128, offset: 0x1DC0A, size: 0x8, addend: 0x0, symName: __ZNSt3__116__non_trivial_ifILb1ENS_9allocatorIiEEEC2B7v160006Ev, symObjAddr: 0xEFB4, symBinAddr: 0x100016DE4, symSize: 0x14 }
  - { offsetInCU: 0x11152, offset: 0x1DC34, size: 0x8, addend: 0x0, symName: __ZNSt3__16vectorIiNS_9allocatorIiEEED2B7v160006Ev, symObjAddr: 0xEFC8, symBinAddr: 0x100016DF8, symSize: 0x1F8 }
  - { offsetInCU: 0x1117D, offset: 0x1DC5F, size: 0x8, addend: 0x0, symName: __ZNSt3__16vectorIiNS_9allocatorIiEEE16__destroy_vectorC1ERS3_, symObjAddr: 0xF1C0, symBinAddr: 0x100016FF0, symSize: 0x34 }
  - { offsetInCU: 0x111B6, offset: 0x1DC98, size: 0x8, addend: 0x0, symName: __ZNSt3__16vectorIiNS_9allocatorIiEEE16__destroy_vectorclB7v160006Ev, symObjAddr: 0xF1F4, symBinAddr: 0x100017024, symSize: 0x264 }
  - { offsetInCU: 0x111DC, offset: 0x1DCBE, size: 0x8, addend: 0x0, symName: __ZNSt3__16vectorIiNS_9allocatorIiEEE16__destroy_vectorC2ERS3_, symObjAddr: 0xF458, symBinAddr: 0x100017288, symSize: 0x70 }
  - { offsetInCU: 0x11215, offset: 0x1DCF7, size: 0x8, addend: 0x0, symName: __ZNKSt3__16vectorIiNS_9allocatorIiEEE17__annotate_deleteB7v160006Ev, symObjAddr: 0xF4C8, symBinAddr: 0x1000172F8, symSize: 0xCC }
  - { offsetInCU: 0x1123B, offset: 0x1DD1D, size: 0x8, addend: 0x0, symName: __ZNSt3__16vectorIiNS_9allocatorIiEEE7__clearB7v160006Ev, symObjAddr: 0xF5A4, symBinAddr: 0x1000173D4, symSize: 0x64 }
  - { offsetInCU: 0x11261, offset: 0x1DD43, size: 0x8, addend: 0x0, symName: __ZNSt3__116allocator_traitsINS_9allocatorIiEEE10deallocateB7v160006ERS2_Pim, symObjAddr: 0xF608, symBinAddr: 0x100017438, symSize: 0x34 }
  - { offsetInCU: 0x112A3, offset: 0x1DD85, size: 0x8, addend: 0x0, symName: __ZNSt3__16vectorIiNS_9allocatorIiEEE7__allocB7v160006Ev, symObjAddr: 0xF63C, symBinAddr: 0x10001746C, symSize: 0x28 }
  - { offsetInCU: 0x112C9, offset: 0x1DDAB, size: 0x8, addend: 0x0, symName: __ZNKSt3__16vectorIiNS_9allocatorIiEEE8capacityB7v160006Ev, symObjAddr: 0xF664, symBinAddr: 0x100017494, symSize: 0xBC }
  - { offsetInCU: 0x112EF, offset: 0x1DDD1, size: 0x8, addend: 0x0, symName: __ZNKSt3__16vectorIiNS_9allocatorIiEEE31__annotate_contiguous_containerEPKvS5_S5_S5_, symObjAddr: 0xF720, symBinAddr: 0x100017550, symSize: 0x58 }
  - { offsetInCU: 0x11351, offset: 0x1DE33, size: 0x8, addend: 0x0, symName: __ZNKSt3__16vectorIiNS_9allocatorIiEEE4dataB7v160006Ev, symObjAddr: 0xF778, symBinAddr: 0x1000175A8, symSize: 0x64 }
  - { offsetInCU: 0x11377, offset: 0x1DE59, size: 0x8, addend: 0x0, symName: __ZNKSt3__16vectorIiNS_9allocatorIiEEE4sizeB7v160006Ev, symObjAddr: 0xF7DC, symBinAddr: 0x10001760C, symSize: 0xB0 }
  - { offsetInCU: 0x1139D, offset: 0x1DE7F, size: 0x8, addend: 0x0, symName: __ZNSt3__16vectorIiNS_9allocatorIiEEE22__base_destruct_at_endB7v160006EPi, symObjAddr: 0xF8A0, symBinAddr: 0x1000176D0, symSize: 0x114 }
  - { offsetInCU: 0x113E1, offset: 0x1DEC3, size: 0x8, addend: 0x0, symName: __ZNSt3__116allocator_traitsINS_9allocatorIiEEE7destroyB7v160006IivEEvRS2_PT_, symObjAddr: 0xF9B4, symBinAddr: 0x1000177E4, symSize: 0x2C }
  - { offsetInCU: 0x1141E, offset: 0x1DF00, size: 0x8, addend: 0x0, symName: __ZNSt3__19allocatorIiE7destroyB7v160006EPi, symObjAddr: 0xF9E0, symBinAddr: 0x100017810, symSize: 0x14 }
  - { offsetInCU: 0x11452, offset: 0x1DF34, size: 0x8, addend: 0x0, symName: __ZNSt3__19allocatorIiE10deallocateB7v160006EPim, symObjAddr: 0xF9F4, symBinAddr: 0x100017824, symSize: 0x4C }
  - { offsetInCU: 0x11494, offset: 0x1DF76, size: 0x8, addend: 0x0, symName: __ZNSt3__117__compressed_pairIPiNS_9allocatorIiEEE6secondB7v160006Ev, symObjAddr: 0xFA40, symBinAddr: 0x100017870, symSize: 0x24 }
  - { offsetInCU: 0x114BA, offset: 0x1DF9C, size: 0x8, addend: 0x0, symName: __ZNSt3__122__compressed_pair_elemINS_9allocatorIiEELi1ELb1EE5__getB7v160006Ev, symObjAddr: 0xFA64, symBinAddr: 0x100017894, symSize: 0x14 }
  - { offsetInCU: 0x114E0, offset: 0x1DFC2, size: 0x8, addend: 0x0, symName: __ZNKSt3__16vectorIiNS_9allocatorIiEEE9__end_capB7v160006Ev, symObjAddr: 0xFA78, symBinAddr: 0x1000178A8, symSize: 0x28 }
  - { offsetInCU: 0x11506, offset: 0x1DFE8, size: 0x8, addend: 0x0, symName: __ZNKSt3__117__compressed_pairIPiNS_9allocatorIiEEE5firstB7v160006Ev, symObjAddr: 0xFAA0, symBinAddr: 0x1000178D0, symSize: 0x24 }
  - { offsetInCU: 0x1152C, offset: 0x1E00E, size: 0x8, addend: 0x0, symName: __ZNKSt3__122__compressed_pair_elemIPiLi0ELb0EE5__getB7v160006Ev, symObjAddr: 0xFAC4, symBinAddr: 0x1000178F4, symSize: 0x14 }
  - { offsetInCU: 0x11552, offset: 0x1E034, size: 0x8, addend: 0x0, symName: __ZNSt3__16vectorIiNS_9allocatorIiEEE9__end_capB7v160006Ev, symObjAddr: 0xFAD8, symBinAddr: 0x100017908, symSize: 0x28 }
  - { offsetInCU: 0x1157D, offset: 0x1E05F, size: 0x8, addend: 0x0, symName: __ZNSt3__16vectorIiNS_9allocatorIiEEE22__construct_one_at_endB7v160006IJiEEEvDpOT_, symObjAddr: 0xFB00, symBinAddr: 0x100017930, symSize: 0x36C }
  - { offsetInCU: 0x115D2, offset: 0x1E0B4, size: 0x8, addend: 0x0, symName: __ZNSt3__16vectorIiNS_9allocatorIiEEE21__push_back_slow_pathIiEEvOT_, symObjAddr: 0xFE6C, symBinAddr: 0x100017C9C, symSize: 0x3C0 }
  - { offsetInCU: 0x11637, offset: 0x1E119, size: 0x8, addend: 0x0, symName: __ZNSt3__117__compressed_pairIPiNS_9allocatorIiEEE5firstB7v160006Ev, symObjAddr: 0x1022C, symBinAddr: 0x10001805C, symSize: 0x24 }
  - { offsetInCU: 0x1165D, offset: 0x1E13F, size: 0x8, addend: 0x0, symName: __ZNSt3__122__compressed_pair_elemIPiLi0ELb0EE5__getB7v160006Ev, symObjAddr: 0x10250, symBinAddr: 0x100018080, symSize: 0x14 }
  - { offsetInCU: 0x1169C, offset: 0x1E17E, size: 0x8, addend: 0x0, symName: __ZNSt3__16vectorIiNS_9allocatorIiEEE21_ConstructTransactionC1B7v160006ERS3_m, symObjAddr: 0x10264, symBinAddr: 0x100018094, symSize: 0x3C }
  - { offsetInCU: 0x116E4, offset: 0x1E1C6, size: 0x8, addend: 0x0, symName: __ZNSt3__116allocator_traitsINS_9allocatorIiEEE9constructB7v160006IiJiEvEEvRS2_PT_DpOT0_, symObjAddr: 0x102A0, symBinAddr: 0x1000180D0, symSize: 0x34 }
  - { offsetInCU: 0x1173B, offset: 0x1E21D, size: 0x8, addend: 0x0, symName: __ZNSt3__16vectorIiNS_9allocatorIiEEE21_ConstructTransactionD1B7v160006Ev, symObjAddr: 0x102D4, symBinAddr: 0x100018104, symSize: 0x2C }
  - { offsetInCU: 0x11765, offset: 0x1E247, size: 0x8, addend: 0x0, symName: __ZNSt3__16vectorIiNS_9allocatorIiEEE21_ConstructTransactionC2B7v160006ERS3_m, symObjAddr: 0x10300, symBinAddr: 0x100018130, symSize: 0x1D0 }
  - { offsetInCU: 0x117AD, offset: 0x1E28F, size: 0x8, addend: 0x0, symName: __ZNKSt3__16vectorIiNS_9allocatorIiEEE19__annotate_increaseB7v160006Em, symObjAddr: 0x104D0, symBinAddr: 0x100018300, symSize: 0xD8 }
  - { offsetInCU: 0x117E2, offset: 0x1E2C4, size: 0x8, addend: 0x0, symName: __ZNSt3__19allocatorIiE9constructB7v160006IiJiEEEvPT_DpOT0_, symObjAddr: 0x105A8, symBinAddr: 0x1000183D8, symSize: 0x104 }
  - { offsetInCU: 0x11838, offset: 0x1E31A, size: 0x8, addend: 0x0, symName: __ZNSt3__16vectorIiNS_9allocatorIiEEE21_ConstructTransactionD2B7v160006Ev, symObjAddr: 0x106AC, symBinAddr: 0x1000184DC, symSize: 0x278 }
  - { offsetInCU: 0x11862, offset: 0x1E344, size: 0x8, addend: 0x0, symName: __ZNKSt3__16vectorIiNS_9allocatorIiEEE17__annotate_shrinkB7v160006Em, symObjAddr: 0x10924, symBinAddr: 0x100018754, symSize: 0xC8 }
  - { offsetInCU: 0x11897, offset: 0x1E379, size: 0x8, addend: 0x0, symName: __ZNKSt3__16vectorIiNS_9allocatorIiEEE11__recommendB7v160006Em, symObjAddr: 0x109EC, symBinAddr: 0x10001881C, symSize: 0x384 }
  - { offsetInCU: 0x118F3, offset: 0x1E3D5, size: 0x8, addend: 0x0, symName: __ZNSt3__114__split_bufferIiRNS_9allocatorIiEEEC1EmmS3_, symObjAddr: 0x10D70, symBinAddr: 0x100018BA0, symSize: 0x44 }
  - { offsetInCU: 0x11949, offset: 0x1E42B, size: 0x8, addend: 0x0, symName: __ZNSt3__114__split_bufferIiRNS_9allocatorIiEEED1Ev, symObjAddr: 0x11328, symBinAddr: 0x100019158, symSize: 0x2C }
  - { offsetInCU: 0x11975, offset: 0x1E457, size: 0x8, addend: 0x0, symName: __ZNKSt3__16vectorIiNS_9allocatorIiEEE8max_sizeEv, symObjAddr: 0x11354, symBinAddr: 0x100019184, symSize: 0x2FC }
  - { offsetInCU: 0x1199E, offset: 0x1E480, size: 0x8, addend: 0x0, symName: __ZNKSt3__16vectorIiNS_9allocatorIiEEE20__throw_length_errorB7v160006Ev, symObjAddr: 0x11650, symBinAddr: 0x100019480, symSize: 0x20 }
  - { offsetInCU: 0x119CE, offset: 0x1E4B0, size: 0x8, addend: 0x0, symName: __ZNSt3__116allocator_traitsINS_9allocatorIiEEE8max_sizeB7v160006IS2_vEEmRKS2_, symObjAddr: 0x116C8, symBinAddr: 0x1000194F8, symSize: 0x24 }
  - { offsetInCU: 0x119FC, offset: 0x1E4DE, size: 0x8, addend: 0x0, symName: __ZNKSt3__16vectorIiNS_9allocatorIiEEE7__allocB7v160006Ev, symObjAddr: 0x116EC, symBinAddr: 0x10001951C, symSize: 0x28 }
  - { offsetInCU: 0x11A22, offset: 0x1E504, size: 0x8, addend: 0x0, symName: __ZNSt3__114numeric_limitsIlE3maxB7v160006Ev, symObjAddr: 0x11714, symBinAddr: 0x100019544, symSize: 0x14 }
  - { offsetInCU: 0x11A4A, offset: 0x1E52C, size: 0x8, addend: 0x0, symName: __ZNKSt3__16__lessImmEclB7v160006ERKmS3_, symObjAddr: 0x11910, symBinAddr: 0x100019740, symSize: 0xBC }
  - { offsetInCU: 0x11A8C, offset: 0x1E56E, size: 0x8, addend: 0x0, symName: __ZNKSt3__19allocatorIiE8max_sizeB7v160006Ev, symObjAddr: 0x119CC, symBinAddr: 0x1000197FC, symSize: 0x14 }
  - { offsetInCU: 0x11AB2, offset: 0x1E594, size: 0x8, addend: 0x0, symName: __ZNKSt3__117__compressed_pairIPiNS_9allocatorIiEEE6secondB7v160006Ev, symObjAddr: 0x119E0, symBinAddr: 0x100019810, symSize: 0x24 }
  - { offsetInCU: 0x11AD8, offset: 0x1E5BA, size: 0x8, addend: 0x0, symName: __ZNKSt3__122__compressed_pair_elemINS_9allocatorIiEELi1ELb1EE5__getB7v160006Ev, symObjAddr: 0x11A04, symBinAddr: 0x100019834, symSize: 0x14 }
  - { offsetInCU: 0x11AFE, offset: 0x1E5E0, size: 0x8, addend: 0x0, symName: __ZNSt3__123__libcpp_numeric_limitsIlLb1EE3maxB7v160006Ev, symObjAddr: 0x11A18, symBinAddr: 0x100019848, symSize: 0x8 }
  - { offsetInCU: 0x11B12, offset: 0x1E5F4, size: 0x8, addend: 0x0, symName: __ZNSt12length_errorC1B7v160006EPKc, symObjAddr: 0x11A88, symBinAddr: 0x1000198B8, symSize: 0x34 }
  - { offsetInCU: 0x11B4A, offset: 0x1E62C, size: 0x8, addend: 0x0, symName: __ZNSt12length_errorC2B7v160006EPKc, symObjAddr: 0x11ABC, symBinAddr: 0x1000198EC, symSize: 0x8C }
  - { offsetInCU: 0x11B82, offset: 0x1E664, size: 0x8, addend: 0x0, symName: __ZNSt3__114__split_bufferIiRNS_9allocatorIiEEEC2EmmS3_, symObjAddr: 0x11D30, symBinAddr: 0x100019B60, symSize: 0x520 }
  - { offsetInCU: 0x11BFD, offset: 0x1E6DF, size: 0x8, addend: 0x0, symName: __ZNSt3__117__compressed_pairIPiRNS_9allocatorIiEEEC1B7v160006IDnS4_EEOT_OT0_, symObjAddr: 0x12250, symBinAddr: 0x10001A080, symSize: 0x3C }
  - { offsetInCU: 0x11C55, offset: 0x1E737, size: 0x8, addend: 0x0, symName: __ZNSt3__114__split_bufferIiRNS_9allocatorIiEEE7__allocB7v160006Ev, symObjAddr: 0x12518, symBinAddr: 0x10001A348, symSize: 0x28 }
  - { offsetInCU: 0x11C7B, offset: 0x1E75D, size: 0x8, addend: 0x0, symName: __ZNSt3__114__split_bufferIiRNS_9allocatorIiEEE9__end_capB7v160006Ev, symObjAddr: 0x12540, symBinAddr: 0x10001A370, symSize: 0x28 }
  - { offsetInCU: 0x11CA1, offset: 0x1E783, size: 0x8, addend: 0x0, symName: __ZNSt3__117__compressed_pairIPiRNS_9allocatorIiEEEC2B7v160006IDnS4_EEOT_OT0_, symObjAddr: 0x12568, symBinAddr: 0x10001A398, symSize: 0x48 }
  - { offsetInCU: 0x11CF9, offset: 0x1E7DB, size: 0x8, addend: 0x0, symName: __ZNSt3__122__compressed_pair_elemIRNS_9allocatorIiEELi1ELb0EEC2B7v160006IS3_vEEOT_, symObjAddr: 0x125B0, symBinAddr: 0x10001A3E0, symSize: 0x70 }
  - { offsetInCU: 0x11D3B, offset: 0x1E81D, size: 0x8, addend: 0x0, symName: __ZNSt3__19allocatorIiE8allocateB7v160006Em, symObjAddr: 0x12620, symBinAddr: 0x10001A450, symSize: 0x5C }
  - { offsetInCU: 0x11D6F, offset: 0x1E851, size: 0x8, addend: 0x0, symName: __ZNSt3__117__compressed_pairIPiRNS_9allocatorIiEEE6secondB7v160006Ev, symObjAddr: 0x12764, symBinAddr: 0x10001A594, symSize: 0x28 }
  - { offsetInCU: 0x11D95, offset: 0x1E877, size: 0x8, addend: 0x0, symName: __ZNSt3__122__compressed_pair_elemIRNS_9allocatorIiEELi1ELb0EE5__getB7v160006Ev, symObjAddr: 0x1278C, symBinAddr: 0x10001A5BC, symSize: 0x60 }
  - { offsetInCU: 0x11DBB, offset: 0x1E89D, size: 0x8, addend: 0x0, symName: __ZNSt3__117__compressed_pairIPiRNS_9allocatorIiEEE5firstB7v160006Ev, symObjAddr: 0x127EC, symBinAddr: 0x10001A61C, symSize: 0x24 }
  - { offsetInCU: 0x11DE1, offset: 0x1E8C3, size: 0x8, addend: 0x0, symName: __ZNSt3__116reverse_iteratorIPiEC1B7v160006ES1_, symObjAddr: 0x12CB8, symBinAddr: 0x10001AAE8, symSize: 0x34 }
  - { offsetInCU: 0x11E19, offset: 0x1E8FB, size: 0x8, addend: 0x0, symName: __ZNKSt3__116reverse_iteratorIPiE4baseB7v160006Ev, symObjAddr: 0x12CEC, symBinAddr: 0x10001AB1C, symSize: 0x64 }
  - { offsetInCU: 0x11E3F, offset: 0x1E921, size: 0x8, addend: 0x0, symName: __ZNKSt3__16vectorIiNS_9allocatorIiEEE14__annotate_newB7v160006Em, symObjAddr: 0x12E84, symBinAddr: 0x10001ACB4, symSize: 0xC0 }
  - { offsetInCU: 0x11E97, offset: 0x1E979, size: 0x8, addend: 0x0, symName: __ZNKSt3__111__move_loopINS_17_ClassicAlgPolicyEEclB7v160006INS_16reverse_iteratorIPiEES6_S6_EENS_4pairIT_T1_EES8_T0_S9_, symObjAddr: 0x14914, symBinAddr: 0x10001C744, symSize: 0x3F8 }
  - { offsetInCU: 0x11F0F, offset: 0x1E9F1, size: 0x8, addend: 0x0, symName: __ZNSt3__18_IterOpsINS_17_ClassicAlgPolicyEE11__iter_moveB7v160006IRNS_16reverse_iteratorIPiEEEENS_9enable_ifIXsr12is_referenceIDTdeclsr3stdE7declvalIRT_EEEEE5valueEDTclsr3stdE4movedeclsr3stdE7declvalISA_EEEEE4typeEOS9_, symObjAddr: 0x15834, symBinAddr: 0x10001D664, symSize: 0x28 }
  - { offsetInCU: 0x11F3B, offset: 0x1EA1D, size: 0x8, addend: 0x0, symName: __ZNKSt3__116reverse_iteratorIPiEdeB7v160006Ev, symObjAddr: 0x1585C, symBinAddr: 0x10001D68C, symSize: 0x74 }
  - { offsetInCU: 0x11F70, offset: 0x1EA52, size: 0x8, addend: 0x0, symName: __ZNSt3__116reverse_iteratorIPiEppB7v160006Ev, symObjAddr: 0x158D0, symBinAddr: 0x10001D700, symSize: 0x6C }
  - { offsetInCU: 0x11F96, offset: 0x1EA78, size: 0x8, addend: 0x0, symName: __ZNSt3__18_IterOpsINS_17_ClassicAlgPolicyEE25__validate_iter_referenceB7v160006IRNS_16reverse_iteratorIPiEEEEvv, symObjAddr: 0x1593C, symBinAddr: 0x10001D76C, symSize: 0x4 }
  - { offsetInCU: 0x11FB4, offset: 0x1EA96, size: 0x8, addend: 0x0, symName: __ZNSt3__118__unwrap_iter_implINS_16reverse_iteratorIPiEELb0EE8__unwrapB7v160006ES3_, symObjAddr: 0x15940, symBinAddr: 0x10001D770, symSize: 0x274 }
  - { offsetInCU: 0x11FE0, offset: 0x1EAC2, size: 0x8, addend: 0x0, symName: __ZNSt3__14pairINS_16reverse_iteratorIPiEES3_EC1B7v160006IS3_S3_LPv0EEEOT_OT0_, symObjAddr: 0x15BB4, symBinAddr: 0x10001D9E4, symSize: 0x3C }
  - { offsetInCU: 0x1203F, offset: 0x1EB21, size: 0x8, addend: 0x0, symName: __ZNSt3__14pairINS_16reverse_iteratorIPiEES3_EC2B7v160006IS3_S3_LPv0EEEOT_OT0_, symObjAddr: 0x15BF0, symBinAddr: 0x10001DA20, symSize: 0x54 }
  - { offsetInCU: 0x1209E, offset: 0x1EB80, size: 0x8, addend: 0x0, symName: __ZNSt3__118__unwrap_iter_implINS_16reverse_iteratorIPiEELb0EE8__rewrapB7v160006ES3_S3_, symObjAddr: 0x15C44, symBinAddr: 0x10001DA74, symSize: 0x2E0 }
  - { offsetInCU: 0x120D4, offset: 0x1EBB6, size: 0x8, addend: 0x0, symName: __ZNSt3__116reverse_iteratorIPiEC2B7v160006ES1_, symObjAddr: 0x15F24, symBinAddr: 0x10001DD54, symSize: 0xB8 }
  - { offsetInCU: 0x1210C, offset: 0x1EBEE, size: 0x8, addend: 0x0, symName: __ZNSt3__114__split_bufferIiRNS_9allocatorIiEEED2Ev, symObjAddr: 0x15FDC, symBinAddr: 0x10001DE0C, symSize: 0x104 }
  - { offsetInCU: 0x12138, offset: 0x1EC1A, size: 0x8, addend: 0x0, symName: __ZNSt3__114__split_bufferIiRNS_9allocatorIiEEE5clearB7v160006Ev, symObjAddr: 0x160E0, symBinAddr: 0x10001DF10, symSize: 0x68 }
  - { offsetInCU: 0x1215E, offset: 0x1EC40, size: 0x8, addend: 0x0, symName: __ZNKSt3__114__split_bufferIiRNS_9allocatorIiEEE8capacityB7v160006Ev, symObjAddr: 0x16148, symBinAddr: 0x10001DF78, symSize: 0xBC }
  - { offsetInCU: 0x12184, offset: 0x1EC66, size: 0x8, addend: 0x0, symName: __ZNSt3__114__split_bufferIiRNS_9allocatorIiEEE17__destruct_at_endB7v160006EPi, symObjAddr: 0x16204, symBinAddr: 0x10001E034, symSize: 0x2C }
  - { offsetInCU: 0x121B8, offset: 0x1EC9A, size: 0x8, addend: 0x0, symName: __ZNSt3__114__split_bufferIiRNS_9allocatorIiEEE17__destruct_at_endB7v160006EPiNS_17integral_constantIbLb0EEE, symObjAddr: 0x16230, symBinAddr: 0x10001E060, symSize: 0x10C }
  - { offsetInCU: 0x121F9, offset: 0x1ECDB, size: 0x8, addend: 0x0, symName: __ZNKSt3__114__split_bufferIiRNS_9allocatorIiEEE9__end_capB7v160006Ev, symObjAddr: 0x1633C, symBinAddr: 0x10001E16C, symSize: 0x28 }
  - { offsetInCU: 0x1221F, offset: 0x1ED01, size: 0x8, addend: 0x0, symName: __ZNKSt3__117__compressed_pairIPiRNS_9allocatorIiEEE5firstB7v160006Ev, symObjAddr: 0x16364, symBinAddr: 0x10001E194, symSize: 0x24 }
  - { offsetInCU: 0x12245, offset: 0x1ED27, size: 0x8, addend: 0x0, symName: __ZNSt3__16vectorIiNS_9allocatorIiEEE22__construct_one_at_endB7v160006IJRKiEEEvDpOT_, symObjAddr: 0x16388, symBinAddr: 0x10001E1B8, symSize: 0x36C }
  - { offsetInCU: 0x1229A, offset: 0x1ED7C, size: 0x8, addend: 0x0, symName: __ZNSt3__16vectorIiNS_9allocatorIiEEE21__push_back_slow_pathIRKiEEvOT_, symObjAddr: 0x166F4, symBinAddr: 0x10001E524, symSize: 0x3C0 }
  - { offsetInCU: 0x122FF, offset: 0x1EDE1, size: 0x8, addend: 0x0, symName: __ZNSt3__116allocator_traitsINS_9allocatorIiEEE9constructB7v160006IiJRKiEvEEvRS2_PT_DpOT0_, symObjAddr: 0x16AB4, symBinAddr: 0x10001E8E4, symSize: 0x34 }
  - { offsetInCU: 0x12356, offset: 0x1EE38, size: 0x8, addend: 0x0, symName: __ZNSt3__19allocatorIiE9constructB7v160006IiJRKiEEEvPT_DpOT0_, symObjAddr: 0x16AE8, symBinAddr: 0x10001E918, symSize: 0x104 }
  - { offsetInCU: 0x123AC, offset: 0x1EE8E, size: 0x8, addend: 0x0, symName: __ZNKSt3__113__atomic_baseIbLb0EE4loadB7v160006ENS_12memory_orderE, symObjAddr: 0x16BEC, symBinAddr: 0x10001EA1C, symSize: 0x30 }
  - { offsetInCU: 0x123E1, offset: 0x1EEC3, size: 0x8, addend: 0x0, symName: __ZNSt3__16vectorIN3thc4MoveENS_9allocatorIS2_EEE9__end_capB7v160006Ev, symObjAddr: 0x18DA4, symBinAddr: 0x10001EBE8, symSize: 0x28 }
  - { offsetInCU: 0x12407, offset: 0x1EEE9, size: 0x8, addend: 0x0, symName: __ZNSt3__16vectorIN3thc4MoveENS_9allocatorIS2_EEE22__construct_one_at_endB7v160006IJRKS2_EEEvDpOT_, symObjAddr: 0x18DCC, symBinAddr: 0x10001EC10, symSize: 0x36C }
  - { offsetInCU: 0x1245C, offset: 0x1EF3E, size: 0x8, addend: 0x0, symName: __ZNSt3__16vectorIN3thc4MoveENS_9allocatorIS2_EEE21__push_back_slow_pathIRKS2_EEvOT_, symObjAddr: 0x19138, symBinAddr: 0x10001EF7C, symSize: 0x3C0 }
  - { offsetInCU: 0x124C1, offset: 0x1EFA3, size: 0x8, addend: 0x0, symName: __ZNSt3__117__compressed_pairIPN3thc4MoveENS_9allocatorIS2_EEE5firstB7v160006Ev, symObjAddr: 0x194F8, symBinAddr: 0x10001F33C, symSize: 0x24 }
  - { offsetInCU: 0x124E7, offset: 0x1EFC9, size: 0x8, addend: 0x0, symName: __ZNSt3__122__compressed_pair_elemIPN3thc4MoveELi0ELb0EE5__getB7v160006Ev, symObjAddr: 0x1951C, symBinAddr: 0x10001F360, symSize: 0x14 }
  - { offsetInCU: 0x12526, offset: 0x1F008, size: 0x8, addend: 0x0, symName: __ZNSt3__16vectorIN3thc4MoveENS_9allocatorIS2_EEE21_ConstructTransactionC1B7v160006ERS5_m, symObjAddr: 0x19530, symBinAddr: 0x10001F374, symSize: 0x3C }
  - { offsetInCU: 0x1256E, offset: 0x1F050, size: 0x8, addend: 0x0, symName: __ZNSt3__116allocator_traitsINS_9allocatorIN3thc4MoveEEEE9constructB7v160006IS3_JRKS3_EvEEvRS4_PT_DpOT0_, symObjAddr: 0x1956C, symBinAddr: 0x10001F3B0, symSize: 0x34 }
  - { offsetInCU: 0x125C5, offset: 0x1F0A7, size: 0x8, addend: 0x0, symName: __ZNSt3__16vectorIN3thc4MoveENS_9allocatorIS2_EEE21_ConstructTransactionD1B7v160006Ev, symObjAddr: 0x195A0, symBinAddr: 0x10001F3E4, symSize: 0x2C }
  - { offsetInCU: 0x125EF, offset: 0x1F0D1, size: 0x8, addend: 0x0, symName: __ZNSt3__16vectorIN3thc4MoveENS_9allocatorIS2_EEE21_ConstructTransactionC2B7v160006ERS5_m, symObjAddr: 0x195CC, symBinAddr: 0x10001F410, symSize: 0x1D0 }
  - { offsetInCU: 0x12637, offset: 0x1F119, size: 0x8, addend: 0x0, symName: __ZNKSt3__16vectorIN3thc4MoveENS_9allocatorIS2_EEE19__annotate_increaseB7v160006Em, symObjAddr: 0x1979C, symBinAddr: 0x10001F5E0, symSize: 0xD8 }
  - { offsetInCU: 0x1266C, offset: 0x1F14E, size: 0x8, addend: 0x0, symName: __ZNSt3__19allocatorIN3thc4MoveEE9constructB7v160006IS2_JRKS2_EEEvPT_DpOT0_, symObjAddr: 0x19874, symBinAddr: 0x10001F6B8, symSize: 0x34 }
  - { offsetInCU: 0x126C2, offset: 0x1F1A4, size: 0x8, addend: 0x0, symName: __ZNSt3__16vectorIN3thc4MoveENS_9allocatorIS2_EEE21_ConstructTransactionD2B7v160006Ev, symObjAddr: 0x198A8, symBinAddr: 0x10001F6EC, symSize: 0x278 }
  - { offsetInCU: 0x126EC, offset: 0x1F1CE, size: 0x8, addend: 0x0, symName: __ZNKSt3__16vectorIN3thc4MoveENS_9allocatorIS2_EEE17__annotate_shrinkB7v160006Em, symObjAddr: 0x19B20, symBinAddr: 0x10001F964, symSize: 0xC8 }
  - { offsetInCU: 0x12721, offset: 0x1F203, size: 0x8, addend: 0x0, symName: __ZNKSt3__16vectorIN3thc4MoveENS_9allocatorIS2_EEE11__recommendB7v160006Em, symObjAddr: 0x19BE8, symBinAddr: 0x10001FA2C, symSize: 0x384 }
  - { offsetInCU: 0x1277D, offset: 0x1F25F, size: 0x8, addend: 0x0, symName: __ZNSt3__114__split_bufferIN3thc4MoveERNS_9allocatorIS2_EEEC1EmmS5_, symObjAddr: 0x19F6C, symBinAddr: 0x10001FDB0, symSize: 0x44 }
  - { offsetInCU: 0x127D3, offset: 0x1F2B5, size: 0x8, addend: 0x0, symName: __ZNSt3__114__split_bufferIN3thc4MoveERNS_9allocatorIS2_EEED1Ev, symObjAddr: 0x1A524, symBinAddr: 0x100020368, symSize: 0x2C }
  - { offsetInCU: 0x127FF, offset: 0x1F2E1, size: 0x8, addend: 0x0, symName: __ZNKSt3__16vectorIN3thc4MoveENS_9allocatorIS2_EEE8max_sizeEv, symObjAddr: 0x1A550, symBinAddr: 0x100020394, symSize: 0x2FC }
  - { offsetInCU: 0x12828, offset: 0x1F30A, size: 0x8, addend: 0x0, symName: __ZNKSt3__16vectorIN3thc4MoveENS_9allocatorIS2_EEE20__throw_length_errorB7v160006Ev, symObjAddr: 0x1A84C, symBinAddr: 0x100020690, symSize: 0x20 }
  - { offsetInCU: 0x12858, offset: 0x1F33A, size: 0x8, addend: 0x0, symName: __ZNSt3__116allocator_traitsINS_9allocatorIN3thc4MoveEEEE8max_sizeB7v160006IS4_vEEmRKS4_, symObjAddr: 0x1A86C, symBinAddr: 0x1000206B0, symSize: 0x24 }
  - { offsetInCU: 0x12886, offset: 0x1F368, size: 0x8, addend: 0x0, symName: __ZNKSt3__16vectorIN3thc4MoveENS_9allocatorIS2_EEE7__allocB7v160006Ev, symObjAddr: 0x1A890, symBinAddr: 0x1000206D4, symSize: 0x28 }
  - { offsetInCU: 0x128AC, offset: 0x1F38E, size: 0x8, addend: 0x0, symName: __ZNKSt3__19allocatorIN3thc4MoveEE8max_sizeB7v160006Ev, symObjAddr: 0x1A8B8, symBinAddr: 0x1000206FC, symSize: 0x14 }
  - { offsetInCU: 0x128D2, offset: 0x1F3B4, size: 0x8, addend: 0x0, symName: __ZNKSt3__117__compressed_pairIPN3thc4MoveENS_9allocatorIS2_EEE6secondB7v160006Ev, symObjAddr: 0x1A8CC, symBinAddr: 0x100020710, symSize: 0x24 }
  - { offsetInCU: 0x128F8, offset: 0x1F3DA, size: 0x8, addend: 0x0, symName: __ZNKSt3__122__compressed_pair_elemINS_9allocatorIN3thc4MoveEEELi1ELb1EE5__getB7v160006Ev, symObjAddr: 0x1A8F0, symBinAddr: 0x100020734, symSize: 0x14 }
  - { offsetInCU: 0x1291E, offset: 0x1F400, size: 0x8, addend: 0x0, symName: __ZNSt3__114__split_bufferIN3thc4MoveERNS_9allocatorIS2_EEEC2EmmS5_, symObjAddr: 0x1A904, symBinAddr: 0x100020748, symSize: 0x520 }
  - { offsetInCU: 0x12999, offset: 0x1F47B, size: 0x8, addend: 0x0, symName: __ZNSt3__117__compressed_pairIPN3thc4MoveERNS_9allocatorIS2_EEEC1B7v160006IDnS6_EEOT_OT0_, symObjAddr: 0x1AE24, symBinAddr: 0x100020C68, symSize: 0x3C }
  - { offsetInCU: 0x129F1, offset: 0x1F4D3, size: 0x8, addend: 0x0, symName: __ZNSt3__114__split_bufferIN3thc4MoveERNS_9allocatorIS2_EEE7__allocB7v160006Ev, symObjAddr: 0x1B0EC, symBinAddr: 0x100020F30, symSize: 0x28 }
  - { offsetInCU: 0x12A17, offset: 0x1F4F9, size: 0x8, addend: 0x0, symName: __ZNSt3__114__split_bufferIN3thc4MoveERNS_9allocatorIS2_EEE9__end_capB7v160006Ev, symObjAddr: 0x1B114, symBinAddr: 0x100020F58, symSize: 0x28 }
  - { offsetInCU: 0x12A3D, offset: 0x1F51F, size: 0x8, addend: 0x0, symName: __ZNSt3__117__compressed_pairIPN3thc4MoveERNS_9allocatorIS2_EEEC2B7v160006IDnS6_EEOT_OT0_, symObjAddr: 0x1B13C, symBinAddr: 0x100020F80, symSize: 0x48 }
  - { offsetInCU: 0x12A95, offset: 0x1F577, size: 0x8, addend: 0x0, symName: __ZNSt3__122__compressed_pair_elemIRNS_9allocatorIN3thc4MoveEEELi1ELb0EEC2B7v160006IS5_vEEOT_, symObjAddr: 0x1B184, symBinAddr: 0x100020FC8, symSize: 0x70 }
  - { offsetInCU: 0x12AD7, offset: 0x1F5B9, size: 0x8, addend: 0x0, symName: __ZNSt3__19allocatorIN3thc4MoveEE8allocateB7v160006Em, symObjAddr: 0x1B1F4, symBinAddr: 0x100021038, symSize: 0x5C }
  - { offsetInCU: 0x12B0B, offset: 0x1F5ED, size: 0x8, addend: 0x0, symName: __ZNSt3__117__compressed_pairIPN3thc4MoveERNS_9allocatorIS2_EEE6secondB7v160006Ev, symObjAddr: 0x1B250, symBinAddr: 0x100021094, symSize: 0x28 }
  - { offsetInCU: 0x12B31, offset: 0x1F613, size: 0x8, addend: 0x0, symName: __ZNSt3__122__compressed_pair_elemIRNS_9allocatorIN3thc4MoveEEELi1ELb0EE5__getB7v160006Ev, symObjAddr: 0x1B278, symBinAddr: 0x1000210BC, symSize: 0x60 }
  - { offsetInCU: 0x12B57, offset: 0x1F639, size: 0x8, addend: 0x0, symName: __ZNSt3__117__compressed_pairIPN3thc4MoveERNS_9allocatorIS2_EEE5firstB7v160006Ev, symObjAddr: 0x1B2D8, symBinAddr: 0x10002111C, symSize: 0x24 }
  - { offsetInCU: 0x12B7D, offset: 0x1F65F, size: 0x8, addend: 0x0, symName: __ZNSt3__116reverse_iteratorIPN3thc4MoveEEC1B7v160006ES3_, symObjAddr: 0x1B7A4, symBinAddr: 0x1000215E8, symSize: 0x34 }
  - { offsetInCU: 0x12BB5, offset: 0x1F697, size: 0x8, addend: 0x0, symName: __ZNKSt3__116reverse_iteratorIPN3thc4MoveEE4baseB7v160006Ev, symObjAddr: 0x1B7D8, symBinAddr: 0x10002161C, symSize: 0x64 }
  - { offsetInCU: 0x12BDB, offset: 0x1F6BD, size: 0x8, addend: 0x0, symName: __ZNKSt3__16vectorIN3thc4MoveENS_9allocatorIS2_EEE14__annotate_newB7v160006Em, symObjAddr: 0x1B970, symBinAddr: 0x1000217B4, symSize: 0xC0 }
  - { offsetInCU: 0x12C29, offset: 0x1F70B, size: 0x8, addend: 0x0, symName: __ZNKSt3__111__move_loopINS_17_ClassicAlgPolicyEEclB7v160006INS_16reverse_iteratorIPN3thc4MoveEEES8_S8_EENS_4pairIT_T1_EESA_T0_SB_, symObjAddr: 0x1D400, symBinAddr: 0x100023244, symSize: 0x344 }
  - { offsetInCU: 0x12CA6, offset: 0x1F788, size: 0x8, addend: 0x0, symName: __ZNSt3__18_IterOpsINS_17_ClassicAlgPolicyEE11__iter_moveB7v160006IRNS_16reverse_iteratorIPN3thc4MoveEEEEENS_9enable_ifIXsr12is_referenceIDTdeclsr3stdE7declvalIRT_EEEEE5valueEDTclsr3stdE4movedeclsr3stdE7declvalISC_EEEEE4typeEOSB_, symObjAddr: 0x1E26C, symBinAddr: 0x1000240B0, symSize: 0x28 }
  - { offsetInCU: 0x12CD2, offset: 0x1F7B4, size: 0x8, addend: 0x0, symName: __ZNKSt3__116reverse_iteratorIPN3thc4MoveEEdeB7v160006Ev, symObjAddr: 0x1E294, symBinAddr: 0x1000240D8, symSize: 0x74 }
  - { offsetInCU: 0x12D07, offset: 0x1F7E9, size: 0x8, addend: 0x0, symName: __ZNSt3__116reverse_iteratorIPN3thc4MoveEEppB7v160006Ev, symObjAddr: 0x1E308, symBinAddr: 0x10002414C, symSize: 0x6C }
  - { offsetInCU: 0x12D2D, offset: 0x1F80F, size: 0x8, addend: 0x0, symName: __ZNSt3__18_IterOpsINS_17_ClassicAlgPolicyEE25__validate_iter_referenceB7v160006IRNS_16reverse_iteratorIPN3thc4MoveEEEEEvv, symObjAddr: 0x1E374, symBinAddr: 0x1000241B8, symSize: 0x4 }
  - { offsetInCU: 0x12D4B, offset: 0x1F82D, size: 0x8, addend: 0x0, symName: __ZNSt3__118__unwrap_iter_implINS_16reverse_iteratorIPN3thc4MoveEEELb0EE8__unwrapB7v160006ES5_, symObjAddr: 0x1E378, symBinAddr: 0x1000241BC, symSize: 0x274 }
  - { offsetInCU: 0x12D77, offset: 0x1F859, size: 0x8, addend: 0x0, symName: __ZNSt3__14pairINS_16reverse_iteratorIPN3thc4MoveEEES5_EC1B7v160006IS5_S5_LPv0EEEOT_OT0_, symObjAddr: 0x1E5EC, symBinAddr: 0x100024430, symSize: 0x3C }
  - { offsetInCU: 0x12DD6, offset: 0x1F8B8, size: 0x8, addend: 0x0, symName: __ZNSt3__14pairINS_16reverse_iteratorIPN3thc4MoveEEES5_EC2B7v160006IS5_S5_LPv0EEEOT_OT0_, symObjAddr: 0x1E628, symBinAddr: 0x10002446C, symSize: 0x54 }
  - { offsetInCU: 0x12E35, offset: 0x1F917, size: 0x8, addend: 0x0, symName: __ZNSt3__118__unwrap_iter_implINS_16reverse_iteratorIPN3thc4MoveEEELb0EE8__rewrapB7v160006ES5_S5_, symObjAddr: 0x1E67C, symBinAddr: 0x1000244C0, symSize: 0x2E0 }
  - { offsetInCU: 0x12E6B, offset: 0x1F94D, size: 0x8, addend: 0x0, symName: __ZNSt3__116reverse_iteratorIPN3thc4MoveEEC2B7v160006ES3_, symObjAddr: 0x1E95C, symBinAddr: 0x1000247A0, symSize: 0xB8 }
  - { offsetInCU: 0x12EA3, offset: 0x1F985, size: 0x8, addend: 0x0, symName: __ZNSt3__114__split_bufferIN3thc4MoveERNS_9allocatorIS2_EEED2Ev, symObjAddr: 0x1EA14, symBinAddr: 0x100024858, symSize: 0x104 }
  - { offsetInCU: 0x12ECF, offset: 0x1F9B1, size: 0x8, addend: 0x0, symName: __ZNSt3__114__split_bufferIN3thc4MoveERNS_9allocatorIS2_EEE5clearB7v160006Ev, symObjAddr: 0x1EB18, symBinAddr: 0x10002495C, symSize: 0x68 }
  - { offsetInCU: 0x12EF5, offset: 0x1F9D7, size: 0x8, addend: 0x0, symName: __ZNKSt3__114__split_bufferIN3thc4MoveERNS_9allocatorIS2_EEE8capacityB7v160006Ev, symObjAddr: 0x1EB80, symBinAddr: 0x1000249C4, symSize: 0xBC }
  - { offsetInCU: 0x12F1B, offset: 0x1F9FD, size: 0x8, addend: 0x0, symName: __ZNSt3__114__split_bufferIN3thc4MoveERNS_9allocatorIS2_EEE17__destruct_at_endB7v160006EPS2_, symObjAddr: 0x1EC3C, symBinAddr: 0x100024A80, symSize: 0x2C }
  - { offsetInCU: 0x12F4F, offset: 0x1FA31, size: 0x8, addend: 0x0, symName: __ZNSt3__114__split_bufferIN3thc4MoveERNS_9allocatorIS2_EEE17__destruct_at_endB7v160006EPS2_NS_17integral_constantIbLb0EEE, symObjAddr: 0x1EC68, symBinAddr: 0x100024AAC, symSize: 0x10C }
  - { offsetInCU: 0x12F90, offset: 0x1FA72, size: 0x8, addend: 0x0, symName: __ZNKSt3__114__split_bufferIN3thc4MoveERNS_9allocatorIS2_EEE9__end_capB7v160006Ev, symObjAddr: 0x1ED74, symBinAddr: 0x100024BB8, symSize: 0x28 }
  - { offsetInCU: 0x12FB6, offset: 0x1FA98, size: 0x8, addend: 0x0, symName: __ZNKSt3__117__compressed_pairIPN3thc4MoveERNS_9allocatorIS2_EEE5firstB7v160006Ev, symObjAddr: 0x1ED9C, symBinAddr: 0x100024BE0, symSize: 0x24 }
  - { offsetInCU: 0x12FDC, offset: 0x1FABE, size: 0x8, addend: 0x0, symName: __ZNSt3__16vectorINS_4pairIfN3thc4MoveEEENS_9allocatorIS4_EEEC2B7v160006Ev, symObjAddr: 0x1EDC0, symBinAddr: 0x100024C04, symSize: 0x2F4 }
  - { offsetInCU: 0x13007, offset: 0x1FAE9, size: 0x8, addend: 0x0, symName: __ZNSt3__117__compressed_pairIPNS_4pairIfN3thc4MoveEEENS_9allocatorIS4_EEEC1B7v160006IDnNS_18__default_init_tagEEEOT_OT0_, symObjAddr: 0x1F0B4, symBinAddr: 0x100024EF8, symSize: 0x3C }
  - { offsetInCU: 0x1305F, offset: 0x1FB41, size: 0x8, addend: 0x0, symName: __ZNSt3__117__compressed_pairIPNS_4pairIfN3thc4MoveEEENS_9allocatorIS4_EEEC2B7v160006IDnNS_18__default_init_tagEEEOT_OT0_, symObjAddr: 0x1F100, symBinAddr: 0x100024F44, symSize: 0x40 }
  - { offsetInCU: 0x130B7, offset: 0x1FB99, size: 0x8, addend: 0x0, symName: __ZNSt3__122__compressed_pair_elemIPNS_4pairIfN3thc4MoveEEELi0ELb0EEC2B7v160006IDnvEEOT_, symObjAddr: 0x1F140, symBinAddr: 0x100024F84, symSize: 0x64 }
  - { offsetInCU: 0x130F9, offset: 0x1FBDB, size: 0x8, addend: 0x0, symName: __ZNSt3__122__compressed_pair_elemINS_9allocatorINS_4pairIfN3thc4MoveEEEEELi1ELb1EEC2B7v160006ENS_18__default_init_tagE, symObjAddr: 0x1F1A4, symBinAddr: 0x100024FE8, symSize: 0x2C }
  - { offsetInCU: 0x1312E, offset: 0x1FC10, size: 0x8, addend: 0x0, symName: __ZNSt3__19allocatorINS_4pairIfN3thc4MoveEEEEC2B7v160006Ev, symObjAddr: 0x1F1D0, symBinAddr: 0x100025014, symSize: 0x2C }
  - { offsetInCU: 0x13158, offset: 0x1FC3A, size: 0x8, addend: 0x0, symName: __ZNSt3__116__non_trivial_ifILb1ENS_9allocatorINS_4pairIfN3thc4MoveEEEEEEC2B7v160006Ev, symObjAddr: 0x1F1FC, symBinAddr: 0x100025040, symSize: 0x14 }
  - { offsetInCU: 0x13182, offset: 0x1FC64, size: 0x8, addend: 0x0, symName: __ZNSt3__16vectorINS_4pairIfN3thc4MoveEEENS_9allocatorIS4_EEED2B7v160006Ev, symObjAddr: 0x1F210, symBinAddr: 0x100025054, symSize: 0x1F8 }
  - { offsetInCU: 0x131AD, offset: 0x1FC8F, size: 0x8, addend: 0x0, symName: __ZNSt3__16vectorINS_4pairIfN3thc4MoveEEENS_9allocatorIS4_EEE16__destroy_vectorC1ERS7_, symObjAddr: 0x1F408, symBinAddr: 0x10002524C, symSize: 0x34 }
  - { offsetInCU: 0x131E6, offset: 0x1FCC8, size: 0x8, addend: 0x0, symName: __ZNSt3__16vectorINS_4pairIfN3thc4MoveEEENS_9allocatorIS4_EEE16__destroy_vectorclB7v160006Ev, symObjAddr: 0x1F43C, symBinAddr: 0x100025280, symSize: 0x264 }
  - { offsetInCU: 0x1320C, offset: 0x1FCEE, size: 0x8, addend: 0x0, symName: __ZNSt3__16vectorINS_4pairIfN3thc4MoveEEENS_9allocatorIS4_EEE16__destroy_vectorC2ERS7_, symObjAddr: 0x1F6A0, symBinAddr: 0x1000254E4, symSize: 0x70 }
  - { offsetInCU: 0x13245, offset: 0x1FD27, size: 0x8, addend: 0x0, symName: __ZNKSt3__16vectorINS_4pairIfN3thc4MoveEEENS_9allocatorIS4_EEE17__annotate_deleteB7v160006Ev, symObjAddr: 0x1F710, symBinAddr: 0x100025554, symSize: 0xCC }
  - { offsetInCU: 0x1326B, offset: 0x1FD4D, size: 0x8, addend: 0x0, symName: __ZNSt3__16vectorINS_4pairIfN3thc4MoveEEENS_9allocatorIS4_EEE7__clearB7v160006Ev, symObjAddr: 0x1F7EC, symBinAddr: 0x100025630, symSize: 0x64 }
  - { offsetInCU: 0x13291, offset: 0x1FD73, size: 0x8, addend: 0x0, symName: __ZNSt3__116allocator_traitsINS_9allocatorINS_4pairIfN3thc4MoveEEEEEE10deallocateB7v160006ERS6_PS5_m, symObjAddr: 0x1F850, symBinAddr: 0x100025694, symSize: 0x34 }
  - { offsetInCU: 0x132D3, offset: 0x1FDB5, size: 0x8, addend: 0x0, symName: __ZNSt3__16vectorINS_4pairIfN3thc4MoveEEENS_9allocatorIS4_EEE7__allocB7v160006Ev, symObjAddr: 0x1F884, symBinAddr: 0x1000256C8, symSize: 0x28 }
  - { offsetInCU: 0x132F9, offset: 0x1FDDB, size: 0x8, addend: 0x0, symName: __ZNKSt3__16vectorINS_4pairIfN3thc4MoveEEENS_9allocatorIS4_EEE8capacityB7v160006Ev, symObjAddr: 0x1F8AC, symBinAddr: 0x1000256F0, symSize: 0xBC }
  - { offsetInCU: 0x1331F, offset: 0x1FE01, size: 0x8, addend: 0x0, symName: __ZNKSt3__16vectorINS_4pairIfN3thc4MoveEEENS_9allocatorIS4_EEE31__annotate_contiguous_containerEPKvS9_S9_S9_, symObjAddr: 0x1F968, symBinAddr: 0x1000257AC, symSize: 0x58 }
  - { offsetInCU: 0x13381, offset: 0x1FE63, size: 0x8, addend: 0x0, symName: __ZNKSt3__16vectorINS_4pairIfN3thc4MoveEEENS_9allocatorIS4_EEE4dataB7v160006Ev, symObjAddr: 0x1F9C0, symBinAddr: 0x100025804, symSize: 0x64 }
  - { offsetInCU: 0x133A7, offset: 0x1FE89, size: 0x8, addend: 0x0, symName: __ZNKSt3__16vectorINS_4pairIfN3thc4MoveEEENS_9allocatorIS4_EEE4sizeB7v160006Ev, symObjAddr: 0x1FA24, symBinAddr: 0x100025868, symSize: 0xB0 }
  - { offsetInCU: 0x133CD, offset: 0x1FEAF, size: 0x8, addend: 0x0, symName: __ZNSt3__16vectorINS_4pairIfN3thc4MoveEEENS_9allocatorIS4_EEE22__base_destruct_at_endB7v160006EPS4_, symObjAddr: 0x1FAE8, symBinAddr: 0x10002592C, symSize: 0x114 }
  - { offsetInCU: 0x13411, offset: 0x1FEF3, size: 0x8, addend: 0x0, symName: __ZNSt3__116allocator_traitsINS_9allocatorINS_4pairIfN3thc4MoveEEEEEE7destroyB7v160006IS5_vEEvRS6_PT_, symObjAddr: 0x1FBFC, symBinAddr: 0x100025A40, symSize: 0x2C }
  - { offsetInCU: 0x1344E, offset: 0x1FF30, size: 0x8, addend: 0x0, symName: __ZNSt3__19allocatorINS_4pairIfN3thc4MoveEEEE7destroyB7v160006EPS4_, symObjAddr: 0x1FC28, symBinAddr: 0x100025A6C, symSize: 0x14 }
  - { offsetInCU: 0x13482, offset: 0x1FF64, size: 0x8, addend: 0x0, symName: __ZNSt3__19allocatorINS_4pairIfN3thc4MoveEEEE10deallocateB7v160006EPS4_m, symObjAddr: 0x1FC3C, symBinAddr: 0x100025A80, symSize: 0x4C }
  - { offsetInCU: 0x134C4, offset: 0x1FFA6, size: 0x8, addend: 0x0, symName: __ZNSt3__117__compressed_pairIPNS_4pairIfN3thc4MoveEEENS_9allocatorIS4_EEE6secondB7v160006Ev, symObjAddr: 0x1FC88, symBinAddr: 0x100025ACC, symSize: 0x24 }
  - { offsetInCU: 0x134EA, offset: 0x1FFCC, size: 0x8, addend: 0x0, symName: __ZNSt3__122__compressed_pair_elemINS_9allocatorINS_4pairIfN3thc4MoveEEEEELi1ELb1EE5__getB7v160006Ev, symObjAddr: 0x1FCAC, symBinAddr: 0x100025AF0, symSize: 0x14 }
  - { offsetInCU: 0x13510, offset: 0x1FFF2, size: 0x8, addend: 0x0, symName: __ZNKSt3__16vectorINS_4pairIfN3thc4MoveEEENS_9allocatorIS4_EEE9__end_capB7v160006Ev, symObjAddr: 0x1FCC0, symBinAddr: 0x100025B04, symSize: 0x28 }
  - { offsetInCU: 0x13536, offset: 0x20018, size: 0x8, addend: 0x0, symName: __ZNKSt3__117__compressed_pairIPNS_4pairIfN3thc4MoveEEENS_9allocatorIS4_EEE5firstB7v160006Ev, symObjAddr: 0x1FCE8, symBinAddr: 0x100025B2C, symSize: 0x24 }
  - { offsetInCU: 0x1355C, offset: 0x2003E, size: 0x8, addend: 0x0, symName: __ZNKSt3__122__compressed_pair_elemIPNS_4pairIfN3thc4MoveEEELi0ELb0EE5__getB7v160006Ev, symObjAddr: 0x1FD0C, symBinAddr: 0x100025B50, symSize: 0x14 }
  - { offsetInCU: 0x13582, offset: 0x20064, size: 0x8, addend: 0x0, symName: __ZNSt3__16vectorINS_4pairIfN3thc4MoveEEENS_9allocatorIS4_EEE9__end_capB7v160006Ev, symObjAddr: 0x1FD20, symBinAddr: 0x100025B64, symSize: 0x28 }
  - { offsetInCU: 0x135A8, offset: 0x2008A, size: 0x8, addend: 0x0, symName: __ZNSt3__16vectorINS_4pairIfN3thc4MoveEEENS_9allocatorIS4_EEE22__construct_one_at_endB7v160006IJRfRS3_EEEvDpOT_, symObjAddr: 0x1FD48, symBinAddr: 0x100025B8C, symSize: 0x374 }
  - { offsetInCU: 0x13612, offset: 0x200F4, size: 0x8, addend: 0x0, symName: __ZNSt3__16vectorINS_4pairIfN3thc4MoveEEENS_9allocatorIS4_EEE24__emplace_back_slow_pathIJRfRS3_EEEvDpOT_, symObjAddr: 0x200BC, symBinAddr: 0x100025F00, symSize: 0x3C8 }
  - { offsetInCU: 0x1368E, offset: 0x20170, size: 0x8, addend: 0x0, symName: __ZNSt3__16vectorINS_4pairIfN3thc4MoveEEENS_9allocatorIS4_EEE4backB7v160006Ev, symObjAddr: 0x20484, symBinAddr: 0x1000262C8, symSize: 0x68 }
  - { offsetInCU: 0x136B4, offset: 0x20196, size: 0x8, addend: 0x0, symName: __ZNSt3__117__compressed_pairIPNS_4pairIfN3thc4MoveEEENS_9allocatorIS4_EEE5firstB7v160006Ev, symObjAddr: 0x204EC, symBinAddr: 0x100026330, symSize: 0x24 }
  - { offsetInCU: 0x136DA, offset: 0x201BC, size: 0x8, addend: 0x0, symName: __ZNSt3__122__compressed_pair_elemIPNS_4pairIfN3thc4MoveEEELi0ELb0EE5__getB7v160006Ev, symObjAddr: 0x20510, symBinAddr: 0x100026354, symSize: 0x14 }
  - { offsetInCU: 0x13719, offset: 0x201FB, size: 0x8, addend: 0x0, symName: __ZNSt3__16vectorINS_4pairIfN3thc4MoveEEENS_9allocatorIS4_EEE21_ConstructTransactionC1B7v160006ERS7_m, symObjAddr: 0x20524, symBinAddr: 0x100026368, symSize: 0x3C }
  - { offsetInCU: 0x13761, offset: 0x20243, size: 0x8, addend: 0x0, symName: __ZNSt3__116allocator_traitsINS_9allocatorINS_4pairIfN3thc4MoveEEEEEE9constructB7v160006IS5_JRfRS4_EvEEvRS6_PT_DpOT0_, symObjAddr: 0x20560, symBinAddr: 0x1000263A4, symSize: 0x3C }
  - { offsetInCU: 0x137CC, offset: 0x202AE, size: 0x8, addend: 0x0, symName: __ZNSt3__16vectorINS_4pairIfN3thc4MoveEEENS_9allocatorIS4_EEE21_ConstructTransactionD1B7v160006Ev, symObjAddr: 0x2059C, symBinAddr: 0x1000263E0, symSize: 0x2C }
  - { offsetInCU: 0x137F6, offset: 0x202D8, size: 0x8, addend: 0x0, symName: __ZNSt3__16vectorINS_4pairIfN3thc4MoveEEENS_9allocatorIS4_EEE21_ConstructTransactionC2B7v160006ERS7_m, symObjAddr: 0x205C8, symBinAddr: 0x10002640C, symSize: 0x1D0 }
  - { offsetInCU: 0x1383E, offset: 0x20320, size: 0x8, addend: 0x0, symName: __ZNKSt3__16vectorINS_4pairIfN3thc4MoveEEENS_9allocatorIS4_EEE19__annotate_increaseB7v160006Em, symObjAddr: 0x20798, symBinAddr: 0x1000265DC, symSize: 0xD8 }
  - { offsetInCU: 0x13873, offset: 0x20355, size: 0x8, addend: 0x0, symName: __ZNSt3__19allocatorINS_4pairIfN3thc4MoveEEEE9constructB7v160006IS4_JRfRS3_EEEvPT_DpOT0_, symObjAddr: 0x20870, symBinAddr: 0x1000266B4, symSize: 0x38 }
  - { offsetInCU: 0x138DC, offset: 0x203BE, size: 0x8, addend: 0x0, symName: __ZNSt3__14pairIfN3thc4MoveEEC1B7v160006IRfRS2_LPv0EEEOT_OT0_, symObjAddr: 0x208A8, symBinAddr: 0x1000266EC, symSize: 0x3C }
  - { offsetInCU: 0x1393B, offset: 0x2041D, size: 0x8, addend: 0x0, symName: __ZNSt3__14pairIfN3thc4MoveEEC2B7v160006IRfRS2_LPv0EEEOT_OT0_, symObjAddr: 0x208E4, symBinAddr: 0x100026728, symSize: 0x118 }
  - { offsetInCU: 0x1399A, offset: 0x2047C, size: 0x8, addend: 0x0, symName: __ZNSt3__16vectorINS_4pairIfN3thc4MoveEEENS_9allocatorIS4_EEE21_ConstructTransactionD2B7v160006Ev, symObjAddr: 0x209FC, symBinAddr: 0x100026840, symSize: 0x278 }
  - { offsetInCU: 0x139C4, offset: 0x204A6, size: 0x8, addend: 0x0, symName: __ZNKSt3__16vectorINS_4pairIfN3thc4MoveEEENS_9allocatorIS4_EEE17__annotate_shrinkB7v160006Em, symObjAddr: 0x20C74, symBinAddr: 0x100026AB8, symSize: 0xC8 }
  - { offsetInCU: 0x139F9, offset: 0x204DB, size: 0x8, addend: 0x0, symName: __ZNKSt3__16vectorINS_4pairIfN3thc4MoveEEENS_9allocatorIS4_EEE11__recommendB7v160006Em, symObjAddr: 0x20D3C, symBinAddr: 0x100026B80, symSize: 0x384 }
  - { offsetInCU: 0x13A55, offset: 0x20537, size: 0x8, addend: 0x0, symName: __ZNSt3__114__split_bufferINS_4pairIfN3thc4MoveEEERNS_9allocatorIS4_EEEC1EmmS7_, symObjAddr: 0x210C0, symBinAddr: 0x100026F04, symSize: 0x44 }
  - { offsetInCU: 0x13AAB, offset: 0x2058D, size: 0x8, addend: 0x0, symName: __ZNSt3__114__split_bufferINS_4pairIfN3thc4MoveEEERNS_9allocatorIS4_EEED1Ev, symObjAddr: 0x21678, symBinAddr: 0x1000274BC, symSize: 0x2C }
  - { offsetInCU: 0x13AD7, offset: 0x205B9, size: 0x8, addend: 0x0, symName: __ZNKSt3__16vectorINS_4pairIfN3thc4MoveEEENS_9allocatorIS4_EEE8max_sizeEv, symObjAddr: 0x216A4, symBinAddr: 0x1000274E8, symSize: 0x2FC }
  - { offsetInCU: 0x13B00, offset: 0x205E2, size: 0x8, addend: 0x0, symName: __ZNKSt3__16vectorINS_4pairIfN3thc4MoveEEENS_9allocatorIS4_EEE20__throw_length_errorB7v160006Ev, symObjAddr: 0x219A0, symBinAddr: 0x1000277E4, symSize: 0x20 }
  - { offsetInCU: 0x13B30, offset: 0x20612, size: 0x8, addend: 0x0, symName: __ZNSt3__116allocator_traitsINS_9allocatorINS_4pairIfN3thc4MoveEEEEEE8max_sizeB7v160006IS6_vEEmRKS6_, symObjAddr: 0x219C0, symBinAddr: 0x100027804, symSize: 0x24 }
  - { offsetInCU: 0x13B5E, offset: 0x20640, size: 0x8, addend: 0x0, symName: __ZNKSt3__16vectorINS_4pairIfN3thc4MoveEEENS_9allocatorIS4_EEE7__allocB7v160006Ev, symObjAddr: 0x219E4, symBinAddr: 0x100027828, symSize: 0x28 }
  - { offsetInCU: 0x13B84, offset: 0x20666, size: 0x8, addend: 0x0, symName: __ZNKSt3__19allocatorINS_4pairIfN3thc4MoveEEEE8max_sizeB7v160006Ev, symObjAddr: 0x21A0C, symBinAddr: 0x100027850, symSize: 0x14 }
  - { offsetInCU: 0x13BAA, offset: 0x2068C, size: 0x8, addend: 0x0, symName: __ZNKSt3__117__compressed_pairIPNS_4pairIfN3thc4MoveEEENS_9allocatorIS4_EEE6secondB7v160006Ev, symObjAddr: 0x21A20, symBinAddr: 0x100027864, symSize: 0x24 }
  - { offsetInCU: 0x13BD0, offset: 0x206B2, size: 0x8, addend: 0x0, symName: __ZNKSt3__122__compressed_pair_elemINS_9allocatorINS_4pairIfN3thc4MoveEEEEELi1ELb1EE5__getB7v160006Ev, symObjAddr: 0x21A44, symBinAddr: 0x100027888, symSize: 0x14 }
  - { offsetInCU: 0x13BF6, offset: 0x206D8, size: 0x8, addend: 0x0, symName: __ZNSt3__114__split_bufferINS_4pairIfN3thc4MoveEEERNS_9allocatorIS4_EEEC2EmmS7_, symObjAddr: 0x21A58, symBinAddr: 0x10002789C, symSize: 0x520 }
  - { offsetInCU: 0x13C71, offset: 0x20753, size: 0x8, addend: 0x0, symName: __ZNSt3__117__compressed_pairIPNS_4pairIfN3thc4MoveEEERNS_9allocatorIS4_EEEC1B7v160006IDnS8_EEOT_OT0_, symObjAddr: 0x21F78, symBinAddr: 0x100027DBC, symSize: 0x3C }
  - { offsetInCU: 0x13CC9, offset: 0x207AB, size: 0x8, addend: 0x0, symName: __ZNSt3__114__split_bufferINS_4pairIfN3thc4MoveEEERNS_9allocatorIS4_EEE7__allocB7v160006Ev, symObjAddr: 0x22240, symBinAddr: 0x100028084, symSize: 0x28 }
  - { offsetInCU: 0x13CEF, offset: 0x207D1, size: 0x8, addend: 0x0, symName: __ZNSt3__114__split_bufferINS_4pairIfN3thc4MoveEEERNS_9allocatorIS4_EEE9__end_capB7v160006Ev, symObjAddr: 0x22268, symBinAddr: 0x1000280AC, symSize: 0x28 }
  - { offsetInCU: 0x13D15, offset: 0x207F7, size: 0x8, addend: 0x0, symName: __ZNSt3__117__compressed_pairIPNS_4pairIfN3thc4MoveEEERNS_9allocatorIS4_EEEC2B7v160006IDnS8_EEOT_OT0_, symObjAddr: 0x22290, symBinAddr: 0x1000280D4, symSize: 0x48 }
  - { offsetInCU: 0x13D6D, offset: 0x2084F, size: 0x8, addend: 0x0, symName: __ZNSt3__122__compressed_pair_elemIRNS_9allocatorINS_4pairIfN3thc4MoveEEEEELi1ELb0EEC2B7v160006IS7_vEEOT_, symObjAddr: 0x222D8, symBinAddr: 0x10002811C, symSize: 0x70 }
  - { offsetInCU: 0x13DAF, offset: 0x20891, size: 0x8, addend: 0x0, symName: __ZNSt3__19allocatorINS_4pairIfN3thc4MoveEEEE8allocateB7v160006Em, symObjAddr: 0x22348, symBinAddr: 0x10002818C, symSize: 0x5C }
  - { offsetInCU: 0x13DE3, offset: 0x208C5, size: 0x8, addend: 0x0, symName: __ZNSt3__117__compressed_pairIPNS_4pairIfN3thc4MoveEEERNS_9allocatorIS4_EEE6secondB7v160006Ev, symObjAddr: 0x223A4, symBinAddr: 0x1000281E8, symSize: 0x28 }
  - { offsetInCU: 0x13E09, offset: 0x208EB, size: 0x8, addend: 0x0, symName: __ZNSt3__122__compressed_pair_elemIRNS_9allocatorINS_4pairIfN3thc4MoveEEEEELi1ELb0EE5__getB7v160006Ev, symObjAddr: 0x223CC, symBinAddr: 0x100028210, symSize: 0x60 }
  - { offsetInCU: 0x13E2F, offset: 0x20911, size: 0x8, addend: 0x0, symName: __ZNSt3__117__compressed_pairIPNS_4pairIfN3thc4MoveEEERNS_9allocatorIS4_EEE5firstB7v160006Ev, symObjAddr: 0x2242C, symBinAddr: 0x100028270, symSize: 0x24 }
  - { offsetInCU: 0x13E55, offset: 0x20937, size: 0x8, addend: 0x0, symName: __ZNSt3__116reverse_iteratorIPNS_4pairIfN3thc4MoveEEEEC1B7v160006ES5_, symObjAddr: 0x22994, symBinAddr: 0x1000287D8, symSize: 0x34 }
  - { offsetInCU: 0x13E8D, offset: 0x2096F, size: 0x8, addend: 0x0, symName: __ZNKSt3__116reverse_iteratorIPNS_4pairIfN3thc4MoveEEEE4baseB7v160006Ev, symObjAddr: 0x229C8, symBinAddr: 0x10002880C, symSize: 0x64 }
  - { offsetInCU: 0x13EB3, offset: 0x20995, size: 0x8, addend: 0x0, symName: __ZNKSt3__16vectorINS_4pairIfN3thc4MoveEEENS_9allocatorIS4_EEE14__annotate_newB7v160006Em, symObjAddr: 0x22B60, symBinAddr: 0x1000289A4, symSize: 0xC0 }
  - { offsetInCU: 0x13EE8, offset: 0x209CA, size: 0x8, addend: 0x0, symName: __ZNSt3__129_AllocatorDestroyRangeReverseINS_9allocatorINS_4pairIfN3thc4MoveEEEEENS_16reverse_iteratorIPS5_EEEC1B7v160006ERS6_RS9_SC_, symObjAddr: 0x22E28, symBinAddr: 0x100028C6C, symSize: 0x44 }
  - { offsetInCU: 0x13F3F, offset: 0x20A21, size: 0x8, addend: 0x0, symName: __ZNSt3__116allocator_traitsINS_9allocatorINS_4pairIfN3thc4MoveEEEEEE9constructB7v160006IS5_JS5_EvEEvRS6_PT_DpOT0_, symObjAddr: 0x22EB4, symBinAddr: 0x100028CF8, symSize: 0x34 }
  - { offsetInCU: 0x13F96, offset: 0x20A78, size: 0x8, addend: 0x0, symName: __ZNKSt3__116reverse_iteratorIPNS_4pairIfN3thc4MoveEEEEdeB7v160006Ev, symObjAddr: 0x22F0C, symBinAddr: 0x100028D50, symSize: 0x74 }
  - { offsetInCU: 0x13FCB, offset: 0x20AAD, size: 0x8, addend: 0x0, symName: __ZNSt3__116reverse_iteratorIPNS_4pairIfN3thc4MoveEEEEppB7v160006Ev, symObjAddr: 0x22F80, symBinAddr: 0x100028DC4, symSize: 0x6C }
  - { offsetInCU: 0x13FF1, offset: 0x20AD3, size: 0x8, addend: 0x0, symName: __ZNSt3__128__exception_guard_exceptionsINS_29_AllocatorDestroyRangeReverseINS_9allocatorINS_4pairIfN3thc4MoveEEEEENS_16reverse_iteratorIPS6_EEEEE10__completeB7v160006Ev, symObjAddr: 0x22FEC, symBinAddr: 0x100028E30, symSize: 0x8C }
  - { offsetInCU: 0x14017, offset: 0x20AF9, size: 0x8, addend: 0x0, symName: __ZNSt3__128__exception_guard_exceptionsINS_29_AllocatorDestroyRangeReverseINS_9allocatorINS_4pairIfN3thc4MoveEEEEENS_16reverse_iteratorIPS6_EEEEED1B7v160006Ev, symObjAddr: 0x23078, symBinAddr: 0x100028EBC, symSize: 0x2C }
  - { offsetInCU: 0x14041, offset: 0x20B23, size: 0x8, addend: 0x0, symName: __ZNSt3__128__exception_guard_exceptionsINS_29_AllocatorDestroyRangeReverseINS_9allocatorINS_4pairIfN3thc4MoveEEEEENS_16reverse_iteratorIPS6_EEEEEC1B7v160006ESB_, symObjAddr: 0x230A4, symBinAddr: 0x100028EE8, symSize: 0x34 }
  - { offsetInCU: 0x1407A, offset: 0x20B5C, size: 0x8, addend: 0x0, symName: __ZNSt3__128__exception_guard_exceptionsINS_29_AllocatorDestroyRangeReverseINS_9allocatorINS_4pairIfN3thc4MoveEEEEENS_16reverse_iteratorIPS6_EEEEEC2B7v160006ESB_, symObjAddr: 0x230D8, symBinAddr: 0x100028F1C, symSize: 0xA4 }
  - { offsetInCU: 0x140B3, offset: 0x20B95, size: 0x8, addend: 0x0, symName: __ZNSt3__129_AllocatorDestroyRangeReverseINS_9allocatorINS_4pairIfN3thc4MoveEEEEENS_16reverse_iteratorIPS5_EEEC2B7v160006ERS6_RS9_SC_, symObjAddr: 0x2317C, symBinAddr: 0x100028FC0, symSize: 0x104 }
  - { offsetInCU: 0x1410A, offset: 0x20BEC, size: 0x8, addend: 0x0, symName: __ZNSt3__19allocatorINS_4pairIfN3thc4MoveEEEE9constructB7v160006IS4_JS4_EEEvPT_DpOT0_, symObjAddr: 0x23280, symBinAddr: 0x1000290C4, symSize: 0x34 }
  - { offsetInCU: 0x14165, offset: 0x20C47, size: 0x8, addend: 0x0, symName: __ZNSt3__119__to_address_helperINS_16reverse_iteratorIPNS_4pairIfN3thc4MoveEEEEEvE6__callB7v160006ERKS7_, symObjAddr: 0x232B4, symBinAddr: 0x1000290F8, symSize: 0x44 }
  - { offsetInCU: 0x14188, offset: 0x20C6A, size: 0x8, addend: 0x0, symName: __ZNKSt3__116reverse_iteratorIPNS_4pairIfN3thc4MoveEEEEptB7v160006Ev, symObjAddr: 0x232F8, symBinAddr: 0x10002913C, symSize: 0x24 }
  - { offsetInCU: 0x141AE, offset: 0x20C90, size: 0x8, addend: 0x0, symName: __ZNSt3__128__exception_guard_exceptionsINS_29_AllocatorDestroyRangeReverseINS_9allocatorINS_4pairIfN3thc4MoveEEEEENS_16reverse_iteratorIPS6_EEEEED2B7v160006Ev, symObjAddr: 0x2331C, symBinAddr: 0x100029160, symSize: 0xBC }
  - { offsetInCU: 0x141D8, offset: 0x20CBA, size: 0x8, addend: 0x0, symName: __ZNKSt3__129_AllocatorDestroyRangeReverseINS_9allocatorINS_4pairIfN3thc4MoveEEEEENS_16reverse_iteratorIPS5_EEEclB7v160006Ev, symObjAddr: 0x233D8, symBinAddr: 0x10002921C, symSize: 0x3A8 }
  - { offsetInCU: 0x141FF, offset: 0x20CE1, size: 0x8, addend: 0x0, symName: __ZNSt3__116reverse_iteratorINS0_IPNS_4pairIfN3thc4MoveEEEEEEC1B7v160006ES6_, symObjAddr: 0x237F0, symBinAddr: 0x100029634, symSize: 0x248 }
  - { offsetInCU: 0x1423C, offset: 0x20D1E, size: 0x8, addend: 0x0, symName: __ZNSt3__116reverse_iteratorINS0_IPNS_4pairIfN3thc4MoveEEEEEEppB7v160006Ev, symObjAddr: 0x23D28, symBinAddr: 0x100029B6C, symSize: 0x30 }
  - { offsetInCU: 0x14262, offset: 0x20D44, size: 0x8, addend: 0x0, symName: __ZNKSt3__116reverse_iteratorINS0_IPNS_4pairIfN3thc4MoveEEEEEE4baseB7v160006Ev, symObjAddr: 0x23D58, symBinAddr: 0x100029B9C, symSize: 0x20C }
  - { offsetInCU: 0x1428E, offset: 0x20D70, size: 0x8, addend: 0x0, symName: __ZNSt3__119__to_address_helperINS_16reverse_iteratorINS1_IPNS_4pairIfN3thc4MoveEEEEEEEvE6__callB7v160006ERKS8_, symObjAddr: 0x23F64, symBinAddr: 0x100029DA8, symSize: 0x44 }
  - { offsetInCU: 0x142B1, offset: 0x20D93, size: 0x8, addend: 0x0, symName: __ZNKSt3__116reverse_iteratorINS0_IPNS_4pairIfN3thc4MoveEEEEEEptB7v160006Ev, symObjAddr: 0x23FA8, symBinAddr: 0x100029DEC, symSize: 0x24 }
  - { offsetInCU: 0x142D7, offset: 0x20DB9, size: 0x8, addend: 0x0, symName: __ZNKSt3__116reverse_iteratorINS0_IPNS_4pairIfN3thc4MoveEEEEEEdeB7v160006Ev, symObjAddr: 0x23FCC, symBinAddr: 0x100029E10, symSize: 0x1EC }
  - { offsetInCU: 0x14311, offset: 0x20DF3, size: 0x8, addend: 0x0, symName: __ZNSt3__116reverse_iteratorIPNS_4pairIfN3thc4MoveEEEEmmB7v160006Ev, symObjAddr: 0x241B8, symBinAddr: 0x100029FFC, symSize: 0x6C }
  - { offsetInCU: 0x14337, offset: 0x20E19, size: 0x8, addend: 0x0, symName: __ZNSt3__116reverse_iteratorINS0_IPNS_4pairIfN3thc4MoveEEEEEEC2B7v160006ES6_, symObjAddr: 0x24224, symBinAddr: 0x10002A068, symSize: 0x22C }
  - { offsetInCU: 0x14374, offset: 0x20E56, size: 0x8, addend: 0x0, symName: __ZNSt3__116reverse_iteratorIPNS_4pairIfN3thc4MoveEEEEC2B7v160006ES5_, symObjAddr: 0x24450, symBinAddr: 0x10002A294, symSize: 0xB8 }
  - { offsetInCU: 0x143AC, offset: 0x20E8E, size: 0x8, addend: 0x0, symName: __ZNSt3__114__split_bufferINS_4pairIfN3thc4MoveEEERNS_9allocatorIS4_EEED2Ev, symObjAddr: 0x24508, symBinAddr: 0x10002A34C, symSize: 0x104 }
  - { offsetInCU: 0x143D8, offset: 0x20EBA, size: 0x8, addend: 0x0, symName: __ZNSt3__114__split_bufferINS_4pairIfN3thc4MoveEEERNS_9allocatorIS4_EEE5clearB7v160006Ev, symObjAddr: 0x2460C, symBinAddr: 0x10002A450, symSize: 0x68 }
  - { offsetInCU: 0x143FE, offset: 0x20EE0, size: 0x8, addend: 0x0, symName: __ZNKSt3__114__split_bufferINS_4pairIfN3thc4MoveEEERNS_9allocatorIS4_EEE8capacityB7v160006Ev, symObjAddr: 0x24674, symBinAddr: 0x10002A4B8, symSize: 0xBC }
  - { offsetInCU: 0x14424, offset: 0x20F06, size: 0x8, addend: 0x0, symName: __ZNSt3__114__split_bufferINS_4pairIfN3thc4MoveEEERNS_9allocatorIS4_EEE17__destruct_at_endB7v160006EPS4_, symObjAddr: 0x24730, symBinAddr: 0x10002A574, symSize: 0x2C }
  - { offsetInCU: 0x14458, offset: 0x20F3A, size: 0x8, addend: 0x0, symName: __ZNSt3__114__split_bufferINS_4pairIfN3thc4MoveEEERNS_9allocatorIS4_EEE17__destruct_at_endB7v160006EPS4_NS_17integral_constantIbLb0EEE, symObjAddr: 0x2475C, symBinAddr: 0x10002A5A0, symSize: 0x10C }
  - { offsetInCU: 0x14499, offset: 0x20F7B, size: 0x8, addend: 0x0, symName: __ZNKSt3__114__split_bufferINS_4pairIfN3thc4MoveEEERNS_9allocatorIS4_EEE9__end_capB7v160006Ev, symObjAddr: 0x24868, symBinAddr: 0x10002A6AC, symSize: 0x28 }
  - { offsetInCU: 0x144BF, offset: 0x20FA1, size: 0x8, addend: 0x0, symName: __ZNKSt3__117__compressed_pairIPNS_4pairIfN3thc4MoveEEERNS_9allocatorIS4_EEE5firstB7v160006Ev, symObjAddr: 0x24890, symBinAddr: 0x10002A6D4, symSize: 0x24 }
  - { offsetInCU: 0x144E5, offset: 0x20FC7, size: 0x8, addend: 0x0, symName: __ZNSt3__16vectorINS_4pairIfN3thc4MoveEEENS_9allocatorIS4_EEE11__make_iterB7v160006EPS4_, symObjAddr: 0x248B4, symBinAddr: 0x10002A6F8, symSize: 0x200 }
  - { offsetInCU: 0x1451C, offset: 0x20FFE, size: 0x8, addend: 0x0, symName: __ZNSt3__111__wrap_iterIPNS_4pairIfN3thc4MoveEEEEC1B7v160006EPKvS5_, symObjAddr: 0x24AB4, symBinAddr: 0x10002A8F8, symSize: 0x3C }
  - { offsetInCU: 0x14562, offset: 0x21044, size: 0x8, addend: 0x0, symName: __ZNSt3__111__wrap_iterIPNS_4pairIfN3thc4MoveEEEEC2B7v160006EPKvS5_, symObjAddr: 0x24AF0, symBinAddr: 0x10002A934, symSize: 0x74 }
  - { offsetInCU: 0x145AD, offset: 0x2108F, size: 0x8, addend: 0x0, symName: '__ZNSt3__116_UnwrapAlgPolicyIRZN12SerialEngine7quiesceERN3thc10ChessRulesEffE3$_1E10__get_compB7v160006ES6_', symObjAddr: 0x25534, symBinAddr: 0x10002B378, symSize: 0x14 }
  - { offsetInCU: 0x145DA, offset: 0x210BC, size: 0x8, addend: 0x0, symName: '__ZZN12SerialEngine7quiesceERN3thc10ChessRulesEffENK3$_1clINSt3__14pairIfNS0_4MoveEEES8_EEDaRT_RT0_', symObjAddr: 0x27400, symBinAddr: 0x10002D244, symSize: 0x10C }
  - { offsetInCU: 0x14634, offset: 0x21116, size: 0x8, addend: 0x0, symName: __ZNSt3__18_IterOpsINS_17_ClassicAlgPolicyEE9iter_swapB7v160006IRPNS_4pairIfN3thc4MoveEEES9_EEvOT_OT0_, symObjAddr: 0x2750C, symBinAddr: 0x10002D350, symSize: 0xB0 }
  - { offsetInCU: 0x14677, offset: 0x21159, size: 0x8, addend: 0x0, symName: __ZNSt3__14pairIfN3thc4MoveEE4swapB7v160006ERS3_, symObjAddr: 0x28FC4, symBinAddr: 0x10002EE08, symSize: 0x44 }
  - { offsetInCU: 0x146AC, offset: 0x2118E, size: 0x8, addend: 0x0, symName: __ZNSt3__18_IterOpsINS_17_ClassicAlgPolicyEE11__iter_moveB7v160006IRPNS_4pairIfN3thc4MoveEEEEENS_9enable_ifIXsr12is_referenceIDTdeclsr3stdE7declvalIRT_EEEEE5valueEDTclsr3stdE4movedeclsr3stdE7declvalISC_EEEEE4typeEOSB_, symObjAddr: 0x299E4, symBinAddr: 0x10002F828, symSize: 0x6C }
  - { offsetInCU: 0x146D8, offset: 0x211BA, size: 0x8, addend: 0x0, symName: __ZNSt3__14pairIfN3thc4MoveEEaSB7v160006EOS3_, symObjAddr: 0x29A50, symBinAddr: 0x10002F894, symSize: 0x118 }
  - { offsetInCU: 0x1470D, offset: 0x211EF, size: 0x8, addend: 0x0, symName: __ZNSt3__18_IterOpsINS_17_ClassicAlgPolicyEE25__validate_iter_referenceB7v160006IRPNS_4pairIfN3thc4MoveEEEEEvv, symObjAddr: 0x29B68, symBinAddr: 0x10002F9AC, symSize: 0x4 }
  - { offsetInCU: 0x1472B, offset: 0x2120D, size: 0x8, addend: 0x0, symName: __ZNSt3__18_IterOpsINS_17_ClassicAlgPolicyEE4nextB7v160006IPNS_4pairIfN3thc4MoveEEEEET_S9_S9_, symObjAddr: 0x29B6C, symBinAddr: 0x10002F9B0, symSize: 0x18 }
  - { offsetInCU: 0x14762, offset: 0x21244, size: 0x8, addend: 0x0, symName: __ZNSt3__118__unwrap_iter_implINS_11__wrap_iterIPNS_4pairIfN3thc4MoveEEEEELb1EE8__unwrapB7v160006ES7_, symObjAddr: 0x2BEE4, symBinAddr: 0x100031D28, symSize: 0x1F0 }
  - { offsetInCU: 0x14793, offset: 0x21275, size: 0x8, addend: 0x0, symName: __ZNSt3__119__to_address_helperINS_11__wrap_iterIPNS_4pairIfN3thc4MoveEEEEEvE6__callB7v160006ERKS7_, symObjAddr: 0x2C0F8, symBinAddr: 0x100031F3C, symSize: 0x200 }
  - { offsetInCU: 0x147B7, offset: 0x21299, size: 0x8, addend: 0x0, symName: __ZNSt3__114pointer_traitsINS_11__wrap_iterIPNS_4pairIfN3thc4MoveEEEEEE10to_addressB7v160006ES7_, symObjAddr: 0x2C2F8, symBinAddr: 0x10003213C, symSize: 0x1F4 }
  - { offsetInCU: 0x147DF, offset: 0x212C1, size: 0x8, addend: 0x0, symName: __ZNSt3__16vectorINS_4pairIfN3thc4MoveEEENS_9allocatorIS4_EEE22__construct_one_at_endB7v160006IJfRS3_EEEvDpOT_, symObjAddr: 0x2C4EC, symBinAddr: 0x100032330, symSize: 0x374 }
  - { offsetInCU: 0x14849, offset: 0x2132B, size: 0x8, addend: 0x0, symName: __ZNSt3__16vectorINS_4pairIfN3thc4MoveEEENS_9allocatorIS4_EEE24__emplace_back_slow_pathIJfRS3_EEEvDpOT_, symObjAddr: 0x2C860, symBinAddr: 0x1000326A4, symSize: 0x3C8 }
  - { offsetInCU: 0x148C5, offset: 0x213A7, size: 0x8, addend: 0x0, symName: __ZNSt3__116allocator_traitsINS_9allocatorINS_4pairIfN3thc4MoveEEEEEE9constructB7v160006IS5_JfRS4_EvEEvRS6_PT_DpOT0_, symObjAddr: 0x2CC28, symBinAddr: 0x100032A6C, symSize: 0x3C }
  - { offsetInCU: 0x14930, offset: 0x21412, size: 0x8, addend: 0x0, symName: __ZNSt3__19allocatorINS_4pairIfN3thc4MoveEEEE9constructB7v160006IS4_JfRS3_EEEvPT_DpOT0_, symObjAddr: 0x2CC64, symBinAddr: 0x100032AA8, symSize: 0x38 }
  - { offsetInCU: 0x14999, offset: 0x2147B, size: 0x8, addend: 0x0, symName: __ZNSt3__14pairIfN3thc4MoveEEC1B7v160006IfRS2_LPv0EEEOT_OT0_, symObjAddr: 0x2CC9C, symBinAddr: 0x100032AE0, symSize: 0x3C }
  - { offsetInCU: 0x149F8, offset: 0x214DA, size: 0x8, addend: 0x0, symName: __ZNSt3__14pairIfN3thc4MoveEEC2B7v160006IfRS2_LPv0EEEOT_OT0_, symObjAddr: 0x2CCD8, symBinAddr: 0x100032B1C, symSize: 0x118 }
  - { offsetInCU: 0x14A5C, offset: 0x2153E, size: 0x8, addend: 0x0, symName: '__ZNSt3__116_UnwrapAlgPolicyIRZN12SerialEngine19solve_serial_engineERN3thc10ChessRulesEbRNS2_4MoveEiiffE3$_2E10__get_compB7v160006ES8_', symObjAddr: 0x2D294, symBinAddr: 0x1000330D8, symSize: 0x14 }
  - { offsetInCU: 0x14A89, offset: 0x2156B, size: 0x8, addend: 0x0, symName: '__ZZN12SerialEngine19solve_serial_engineERN3thc10ChessRulesEbRNS0_4MoveEiiffENK3$_2clINSt3__14pairIfS3_EES9_EEDaRT_RT0_', symObjAddr: 0x2F144, symBinAddr: 0x100034F88, symSize: 0x10C }
  - { offsetInCU: 0x3C, offset: 0x217CF, size: 0x8, addend: 0x0, symName: _.str, symObjAddr: 0x703E0, symBinAddr: 0x1000A2D60, symSize: 0x0 }
  - { offsetInCU: 0x6D, offset: 0x21800, size: 0x8, addend: 0x0, symName: _.str.1, symObjAddr: 0x70400, symBinAddr: 0x1000A2D80, symSize: 0x0 }
  - { offsetInCU: 0x7F, offset: 0x21812, size: 0x8, addend: 0x0, symName: _.str.2, symObjAddr: 0x70420, symBinAddr: 0x1000A2DA0, symSize: 0x0 }
  - { offsetInCU: 0x9D, offset: 0x21830, size: 0x8, addend: 0x0, symName: _.str.3, symObjAddr: 0x70440, symBinAddr: 0x1000A2DC0, symSize: 0x0 }
  - { offsetInCU: 0xBB, offset: 0x2184E, size: 0x8, addend: 0x0, symName: _.str.4, symObjAddr: 0x70480, symBinAddr: 0x1000A2E00, symSize: 0x0 }
  - { offsetInCU: 0xD9, offset: 0x2186C, size: 0x8, addend: 0x0, symName: _.str.5, symObjAddr: 0x704A0, symBinAddr: 0x1000A2E20, symSize: 0x0 }
  - { offsetInCU: 0xEB, offset: 0x2187E, size: 0x8, addend: 0x0, symName: _.str.6, symObjAddr: 0x704C0, symBinAddr: 0x1000A2E40, symSize: 0x0 }
  - { offsetInCU: 0xFD, offset: 0x21890, size: 0x8, addend: 0x0, symName: _.str.7, symObjAddr: 0x704E0, symBinAddr: 0x1000A2E60, symSize: 0x0 }
  - { offsetInCU: 0x10F, offset: 0x218A2, size: 0x8, addend: 0x0, symName: _.str.8, symObjAddr: 0x70500, symBinAddr: 0x1000A2E80, symSize: 0x0 }
  - { offsetInCU: 0x121, offset: 0x218B4, size: 0x8, addend: 0x0, symName: _.str.9, symObjAddr: 0x70520, symBinAddr: 0x1000A2EA0, symSize: 0x0 }
  - { offsetInCU: 0x13F, offset: 0x218D2, size: 0x8, addend: 0x0, symName: _.str.10, symObjAddr: 0x70580, symBinAddr: 0x1000A2F00, symSize: 0x0 }
  - { offsetInCU: 0x151, offset: 0x218E4, size: 0x8, addend: 0x0, symName: _.str.11, symObjAddr: 0x705A0, symBinAddr: 0x1000A2F20, symSize: 0x0 }
  - { offsetInCU: 0x16F, offset: 0x21902, size: 0x8, addend: 0x0, symName: _.str.12, symObjAddr: 0x70600, symBinAddr: 0x1000A2F80, symSize: 0x0 }
  - { offsetInCU: 0x181, offset: 0x21914, size: 0x8, addend: 0x0, symName: _.str.13, symObjAddr: 0x70620, symBinAddr: 0x1000A2FA0, symSize: 0x0 }
  - { offsetInCU: 0x193, offset: 0x21926, size: 0x8, addend: 0x0, symName: _.str.14, symObjAddr: 0x70640, symBinAddr: 0x1000A2FC0, symSize: 0x0 }
  - { offsetInCU: 0x1A5, offset: 0x21938, size: 0x8, addend: 0x0, symName: _.str.15, symObjAddr: 0x70660, symBinAddr: 0x1000A2FE0, symSize: 0x0 }
  - { offsetInCU: 0x1B7, offset: 0x2194A, size: 0x8, addend: 0x0, symName: _.str.16, symObjAddr: 0x70680, symBinAddr: 0x1000A3000, symSize: 0x0 }
  - { offsetInCU: 0x1C9, offset: 0x2195C, size: 0x8, addend: 0x0, symName: _.str.17, symObjAddr: 0x706A0, symBinAddr: 0x1000A3020, symSize: 0x0 }
  - { offsetInCU: 0x1E7, offset: 0x2197A, size: 0x8, addend: 0x0, symName: _.str.18, symObjAddr: 0x70700, symBinAddr: 0x1000A3080, symSize: 0x0 }
  - { offsetInCU: 0x1F9, offset: 0x2198C, size: 0x8, addend: 0x0, symName: _.str.19, symObjAddr: 0x70720, symBinAddr: 0x1000A30A0, symSize: 0x0 }
  - { offsetInCU: 0x217, offset: 0x219AA, size: 0x8, addend: 0x0, symName: _.str.20, symObjAddr: 0x70780, symBinAddr: 0x1000A3100, symSize: 0x0 }
  - { offsetInCU: 0x229, offset: 0x219BC, size: 0x8, addend: 0x0, symName: _.str.21, symObjAddr: 0x707A0, symBinAddr: 0x1000A3120, symSize: 0x0 }
  - { offsetInCU: 0x23B, offset: 0x219CE, size: 0x8, addend: 0x0, symName: _.str.22, symObjAddr: 0x707C0, symBinAddr: 0x1000A3140, symSize: 0x0 }
  - { offsetInCU: 0x24D, offset: 0x219E0, size: 0x8, addend: 0x0, symName: _.str.23, symObjAddr: 0x707E0, symBinAddr: 0x1000A3160, symSize: 0x0 }
  - { offsetInCU: 0x25F, offset: 0x219F2, size: 0x8, addend: 0x0, symName: _.str.24, symObjAddr: 0x70800, symBinAddr: 0x1000A3180, symSize: 0x0 }
  - { offsetInCU: 0x271, offset: 0x21A04, size: 0x8, addend: 0x0, symName: _.str.25, symObjAddr: 0x70820, symBinAddr: 0x1000A31A0, symSize: 0x0 }
  - { offsetInCU: 0x28F, offset: 0x21A22, size: 0x8, addend: 0x0, symName: _.str.26, symObjAddr: 0x70880, symBinAddr: 0x1000A3200, symSize: 0x0 }
  - { offsetInCU: 0x2A1, offset: 0x21A34, size: 0x8, addend: 0x0, symName: _.str.27, symObjAddr: 0x708A0, symBinAddr: 0x1000A3220, symSize: 0x0 }
  - { offsetInCU: 0x2B3, offset: 0x21A46, size: 0x8, addend: 0x0, symName: _.str.28, symObjAddr: 0x70900, symBinAddr: 0x1000A3280, symSize: 0x0 }
  - { offsetInCU: 0x2D1, offset: 0x21A64, size: 0x8, addend: 0x0, symName: _.str.29, symObjAddr: 0x70960, symBinAddr: 0x1000A32E0, symSize: 0x0 }
  - { offsetInCU: 0x2EF, offset: 0x21A82, size: 0x8, addend: 0x0, symName: _.str.30, symObjAddr: 0x709A0, symBinAddr: 0x1000A3320, symSize: 0x0 }
  - { offsetInCU: 0x30D, offset: 0x21AA0, size: 0x8, addend: 0x0, symName: _.str.31, symObjAddr: 0x709C0, symBinAddr: 0x1000A3340, symSize: 0x0 }
  - { offsetInCU: 0x32B, offset: 0x21ABE, size: 0x8, addend: 0x0, symName: _.str.32, symObjAddr: 0x70A00, symBinAddr: 0x1000A3380, symSize: 0x0 }
  - { offsetInCU: 0x33D, offset: 0x21AD0, size: 0x8, addend: 0x0, symName: _.str.33, symObjAddr: 0x70A20, symBinAddr: 0x1000A33A0, symSize: 0x0 }
  - { offsetInCU: 0x35B, offset: 0x21AEE, size: 0x8, addend: 0x0, symName: _.str.34, symObjAddr: 0x70A60, symBinAddr: 0x1000A33E0, symSize: 0x0 }
  - { offsetInCU: 0x379, offset: 0x21B0C, size: 0x8, addend: 0x0, symName: _.str.35, symObjAddr: 0x70AA0, symBinAddr: 0x1000A3420, symSize: 0x0 }
  - { offsetInCU: 0x38B, offset: 0x21B1E, size: 0x8, addend: 0x0, symName: _.str.36, symObjAddr: 0x70AE0, symBinAddr: 0x1000A3460, symSize: 0x0 }
  - { offsetInCU: 0x3A9, offset: 0x21B3C, size: 0x8, addend: 0x0, symName: _.str.37, symObjAddr: 0x70B40, symBinAddr: 0x1000A34C0, symSize: 0x0 }
  - { offsetInCU: 0x3C7, offset: 0x21B5A, size: 0x8, addend: 0x0, symName: _.str.38, symObjAddr: 0x70BC0, symBinAddr: 0x1000A3540, symSize: 0x0 }
  - { offsetInCU: 0x3D9, offset: 0x21B6C, size: 0x8, addend: 0x0, symName: _.str.39, symObjAddr: 0x70C00, symBinAddr: 0x1000A3580, symSize: 0x0 }
  - { offsetInCU: 0x3EB, offset: 0x21B7E, size: 0x8, addend: 0x0, symName: _.str.40, symObjAddr: 0x70C60, symBinAddr: 0x1000A35E0, symSize: 0x0 }
  - { offsetInCU: 0x409, offset: 0x21B9C, size: 0x8, addend: 0x0, symName: _.str.41, symObjAddr: 0x70CE0, symBinAddr: 0x1000A3660, symSize: 0x0 }
  - { offsetInCU: 0x427, offset: 0x21BBA, size: 0x8, addend: 0x0, symName: _.str.42, symObjAddr: 0x70D20, symBinAddr: 0x1000A36A0, symSize: 0x0 }
  - { offsetInCU: 0x439, offset: 0x21BCC, size: 0x8, addend: 0x0, symName: _.str.43, symObjAddr: 0x70D40, symBinAddr: 0x1000A36C0, symSize: 0x0 }
  - { offsetInCU: 0x44B, offset: 0x21BDE, size: 0x8, addend: 0x0, symName: _.str.44, symObjAddr: 0x70D60, symBinAddr: 0x1000A36E0, symSize: 0x0 }
  - { offsetInCU: 0x45D, offset: 0x21BF0, size: 0x8, addend: 0x0, symName: _.str.45, symObjAddr: 0x70D80, symBinAddr: 0x1000A3700, symSize: 0x0 }
  - { offsetInCU: 0x46F, offset: 0x21C02, size: 0x8, addend: 0x0, symName: _.str.46, symObjAddr: 0x70DA0, symBinAddr: 0x1000A3720, symSize: 0x0 }
  - { offsetInCU: 0x481, offset: 0x21C14, size: 0x8, addend: 0x0, symName: _.str.47, symObjAddr: 0x70DC0, symBinAddr: 0x1000A3740, symSize: 0x0 }
  - { offsetInCU: 0x493, offset: 0x21C26, size: 0x8, addend: 0x0, symName: _.str.48, symObjAddr: 0x70DE0, symBinAddr: 0x1000A3760, symSize: 0x0 }
  - { offsetInCU: 0x4A5, offset: 0x21C38, size: 0x8, addend: 0x0, symName: _.str.49, symObjAddr: 0x70E20, symBinAddr: 0x1000A37A0, symSize: 0x0 }
  - { offsetInCU: 0x4B7, offset: 0x21C4A, size: 0x8, addend: 0x0, symName: _.str.50, symObjAddr: 0x70E60, symBinAddr: 0x1000A37E0, symSize: 0x0 }
  - { offsetInCU: 0x4C9, offset: 0x21C5C, size: 0x8, addend: 0x0, symName: _.str.51, symObjAddr: 0x70EA0, symBinAddr: 0x1000A3820, symSize: 0x0 }
  - { offsetInCU: 0x4DB, offset: 0x21C6E, size: 0x8, addend: 0x0, symName: _.str.52, symObjAddr: 0x70EE0, symBinAddr: 0x1000A3860, symSize: 0x0 }
  - { offsetInCU: 0x4ED, offset: 0x21C80, size: 0x8, addend: 0x0, symName: _.str.53, symObjAddr: 0x70F20, symBinAddr: 0x1000A38A0, symSize: 0x0 }
  - { offsetInCU: 0x50B, offset: 0x21C9E, size: 0x8, addend: 0x0, symName: _.str.54, symObjAddr: 0x70FC0, symBinAddr: 0x1000A3940, symSize: 0x0 }
  - { offsetInCU: 0x51D, offset: 0x21CB0, size: 0x8, addend: 0x0, symName: _.str.55, symObjAddr: 0x70FE0, symBinAddr: 0x1000A3960, symSize: 0x0 }
  - { offsetInCU: 0x53B, offset: 0x21CCE, size: 0x8, addend: 0x0, symName: _.str.56, symObjAddr: 0x71000, symBinAddr: 0x1000A3980, symSize: 0x0 }
  - { offsetInCU: 0x559, offset: 0x21CEC, size: 0x8, addend: 0x0, symName: _.str.57, symObjAddr: 0x710A0, symBinAddr: 0x1000A3A20, symSize: 0x0 }
  - { offsetInCU: 0x577, offset: 0x21D0A, size: 0x8, addend: 0x0, symName: _.str.58, symObjAddr: 0x71140, symBinAddr: 0x1000A3AC0, symSize: 0x0 }
  - { offsetInCU: 0x595, offset: 0x21D28, size: 0x8, addend: 0x0, symName: _.str.59, symObjAddr: 0x71160, symBinAddr: 0x1000A3AE0, symSize: 0x0 }
  - { offsetInCU: 0x5B3, offset: 0x21D46, size: 0x8, addend: 0x0, symName: _.str.60, symObjAddr: 0x71180, symBinAddr: 0x1000A3B00, symSize: 0x0 }
  - { offsetInCU: 0x5C5, offset: 0x21D58, size: 0x8, addend: 0x0, symName: _.str.61, symObjAddr: 0x711A0, symBinAddr: 0x1000A3B20, symSize: 0x0 }
  - { offsetInCU: 0x5D7, offset: 0x21D6A, size: 0x8, addend: 0x0, symName: _.str.62, symObjAddr: 0x711C0, symBinAddr: 0x1000A3B40, symSize: 0x0 }
  - { offsetInCU: 0x5E9, offset: 0x21D7C, size: 0x8, addend: 0x0, symName: _.str.63, symObjAddr: 0x711E0, symBinAddr: 0x1000A3B60, symSize: 0x0 }
  - { offsetInCU: 0x5FB, offset: 0x21D8E, size: 0x8, addend: 0x0, symName: _.str.64, symObjAddr: 0x71200, symBinAddr: 0x1000A3B80, symSize: 0x0 }
  - { offsetInCU: 0x60D, offset: 0x21DA0, size: 0x8, addend: 0x0, symName: _.str.65, symObjAddr: 0x71220, symBinAddr: 0x1000A3BA0, symSize: 0x0 }
  - { offsetInCU: 0x61F, offset: 0x21DB2, size: 0x8, addend: 0x0, symName: _.str.66, symObjAddr: 0x71240, symBinAddr: 0x1000A3BC0, symSize: 0x0 }
  - { offsetInCU: 0x631, offset: 0x21DC4, size: 0x8, addend: 0x0, symName: _.str.67, symObjAddr: 0x71260, symBinAddr: 0x1000A3BE0, symSize: 0x0 }
  - { offsetInCU: 0x643, offset: 0x21DD6, size: 0x8, addend: 0x0, symName: _.str.68, symObjAddr: 0x71280, symBinAddr: 0x1000A3C00, symSize: 0x0 }
  - { offsetInCU: 0x661, offset: 0x21DF4, size: 0x8, addend: 0x0, symName: _.str.69, symObjAddr: 0x712A0, symBinAddr: 0x1000A3C20, symSize: 0x0 }
  - { offsetInCU: 0x673, offset: 0x21E06, size: 0x8, addend: 0x0, symName: _.str.70, symObjAddr: 0x712C0, symBinAddr: 0x1000A3C40, symSize: 0x0 }
  - { offsetInCU: 0x685, offset: 0x21E18, size: 0x8, addend: 0x0, symName: _.str.71, symObjAddr: 0x712E0, symBinAddr: 0x1000A3C60, symSize: 0x0 }
  - { offsetInCU: 0x697, offset: 0x21E2A, size: 0x8, addend: 0x0, symName: _.str.72, symObjAddr: 0x71300, symBinAddr: 0x1000A3C80, symSize: 0x0 }
  - { offsetInCU: 0x6A9, offset: 0x21E3C, size: 0x8, addend: 0x0, symName: _.str.73, symObjAddr: 0x71320, symBinAddr: 0x1000A3CA0, symSize: 0x0 }
  - { offsetInCU: 0x6BB, offset: 0x21E4E, size: 0x8, addend: 0x0, symName: _.str.74, symObjAddr: 0x71340, symBinAddr: 0x1000A3CC0, symSize: 0x0 }
  - { offsetInCU: 0x6CD, offset: 0x21E60, size: 0x8, addend: 0x0, symName: _.str.75, symObjAddr: 0x71360, symBinAddr: 0x1000A3CE0, symSize: 0x0 }
  - { offsetInCU: 0x6DF, offset: 0x21E72, size: 0x8, addend: 0x0, symName: _.str.76, symObjAddr: 0x71380, symBinAddr: 0x1000A3D00, symSize: 0x0 }
  - { offsetInCU: 0x6F1, offset: 0x21E84, size: 0x8, addend: 0x0, symName: _.str.77, symObjAddr: 0x713A0, symBinAddr: 0x1000A3D20, symSize: 0x0 }
  - { offsetInCU: 0x70F, offset: 0x21EA2, size: 0x8, addend: 0x0, symName: _.str.78, symObjAddr: 0x713C0, symBinAddr: 0x1000A3D40, symSize: 0x0 }
  - { offsetInCU: 0x72D, offset: 0x21EC0, size: 0x8, addend: 0x0, symName: _.str.79, symObjAddr: 0x713E0, symBinAddr: 0x1000A3D60, symSize: 0x0 }
  - { offsetInCU: 0x74B, offset: 0x21EDE, size: 0x8, addend: 0x0, symName: _.str.80, symObjAddr: 0x71400, symBinAddr: 0x1000A3D80, symSize: 0x0 }
  - { offsetInCU: 0x772, offset: 0x21F05, size: 0x8, addend: 0x0, symName: __ZN3thc12queen_lookupE, symObjAddr: 0x7D0C0, symBinAddr: 0x1000D3960, symSize: 0x0 }
  - { offsetInCU: 0x78D, offset: 0x21F20, size: 0x8, addend: 0x0, symName: __ZN3thc11rook_lookupE, symObjAddr: 0x7D340, symBinAddr: 0x1000D3BE0, symSize: 0x0 }
  - { offsetInCU: 0x7A8, offset: 0x21F3B, size: 0x8, addend: 0x0, symName: __ZN3thc13bishop_lookupE, symObjAddr: 0x7D5C0, symBinAddr: 0x1000D3E60, symSize: 0x0 }
  - { offsetInCU: 0x7C3, offset: 0x21F56, size: 0x8, addend: 0x0, symName: __ZN3thc13knight_lookupE, symObjAddr: 0x7D840, symBinAddr: 0x1000D40E0, symSize: 0x0 }
  - { offsetInCU: 0x7DE, offset: 0x21F71, size: 0x8, addend: 0x0, symName: __ZN3thc11king_lookupE, symObjAddr: 0x7DAC0, symBinAddr: 0x1000D4360, symSize: 0x0 }
  - { offsetInCU: 0x7F9, offset: 0x21F8C, size: 0x8, addend: 0x0, symName: __ZN3thc17pawn_white_lookupE, symObjAddr: 0x7DD40, symBinAddr: 0x1000D45E0, symSize: 0x0 }
  - { offsetInCU: 0x814, offset: 0x21FA7, size: 0x8, addend: 0x0, symName: __ZN3thc17pawn_black_lookupE, symObjAddr: 0x7DFC0, symBinAddr: 0x1000D4860, symSize: 0x0 }
  - { offsetInCU: 0x82F, offset: 0x21FC2, size: 0x8, addend: 0x0, symName: __ZN3thc25good_king_position_lookupE, symObjAddr: 0x7E240, symBinAddr: 0x1000D4AE0, symSize: 0x0 }
  - { offsetInCU: 0x84A, offset: 0x21FDD, size: 0x8, addend: 0x0, symName: __ZN3thc25pawn_attacks_white_lookupE, symObjAddr: 0x7E4C0, symBinAddr: 0x1000D4D60, symSize: 0x0 }
  - { offsetInCU: 0x865, offset: 0x21FF8, size: 0x8, addend: 0x0, symName: __ZN3thc25pawn_attacks_black_lookupE, symObjAddr: 0x7E740, symBinAddr: 0x1000D4FE0, symSize: 0x0 }
  - { offsetInCU: 0x880, offset: 0x22013, size: 0x8, addend: 0x0, symName: __ZN3thc20attacks_white_lookupE, symObjAddr: 0x7E9C0, symBinAddr: 0x1000D5260, symSize: 0x0 }
  - { offsetInCU: 0x89B, offset: 0x2202E, size: 0x8, addend: 0x0, symName: __ZN3thc20attacks_black_lookupE, symObjAddr: 0x7EC40, symBinAddr: 0x1000D54E0, symSize: 0x0 }
  - { offsetInCU: 0x8B6, offset: 0x22049, size: 0x8, addend: 0x0, symName: __ZN3thc7to_maskE, symObjAddr: 0x7EEC0, symBinAddr: 0x1000D5760, symSize: 0x0 }
  - { offsetInCU: 0x8D1, offset: 0x22064, size: 0x8, addend: 0x0, symName: __ZN3thcL15queen_lookup_a8E, symObjAddr: 0x7FBE0, symBinAddr: 0x1000A48C0, symSize: 0x0 }
  - { offsetInCU: 0x8EC, offset: 0x2207F, size: 0x8, addend: 0x0, symName: __ZN3thcL15queen_lookup_b8E, symObjAddr: 0x7FC20, symBinAddr: 0x1000A4900, symSize: 0x0 }
  - { offsetInCU: 0x907, offset: 0x2209A, size: 0x8, addend: 0x0, symName: __ZN3thcL15queen_lookup_c8E, symObjAddr: 0x7FC60, symBinAddr: 0x1000A4940, symSize: 0x0 }
  - { offsetInCU: 0x922, offset: 0x220B5, size: 0x8, addend: 0x0, symName: __ZN3thcL15queen_lookup_d8E, symObjAddr: 0x7FCA0, symBinAddr: 0x1000A4980, symSize: 0x0 }
  - { offsetInCU: 0x93D, offset: 0x220D0, size: 0x8, addend: 0x0, symName: __ZN3thcL15queen_lookup_e8E, symObjAddr: 0x7FCE0, symBinAddr: 0x1000A49C0, symSize: 0x0 }
  - { offsetInCU: 0x958, offset: 0x220EB, size: 0x8, addend: 0x0, symName: __ZN3thcL15queen_lookup_f8E, symObjAddr: 0x7FD20, symBinAddr: 0x1000A4A00, symSize: 0x0 }
  - { offsetInCU: 0x973, offset: 0x22106, size: 0x8, addend: 0x0, symName: __ZN3thcL15queen_lookup_g8E, symObjAddr: 0x7FD60, symBinAddr: 0x1000A4A40, symSize: 0x0 }
  - { offsetInCU: 0x98E, offset: 0x22121, size: 0x8, addend: 0x0, symName: __ZN3thcL15queen_lookup_h8E, symObjAddr: 0x7FDA0, symBinAddr: 0x1000A4A80, symSize: 0x0 }
  - { offsetInCU: 0x9A9, offset: 0x2213C, size: 0x8, addend: 0x0, symName: __ZN3thcL15queen_lookup_a7E, symObjAddr: 0x7FDE0, symBinAddr: 0x1000A4AC0, symSize: 0x0 }
  - { offsetInCU: 0x9C4, offset: 0x22157, size: 0x8, addend: 0x0, symName: __ZN3thcL15queen_lookup_b7E, symObjAddr: 0x7FE20, symBinAddr: 0x1000A4B00, symSize: 0x0 }
  - { offsetInCU: 0x9DF, offset: 0x22172, size: 0x8, addend: 0x0, symName: __ZN3thcL15queen_lookup_c7E, symObjAddr: 0x7FE60, symBinAddr: 0x1000A4B40, symSize: 0x0 }
  - { offsetInCU: 0x9FA, offset: 0x2218D, size: 0x8, addend: 0x0, symName: __ZN3thcL15queen_lookup_d7E, symObjAddr: 0x7FEA0, symBinAddr: 0x1000A4B80, symSize: 0x0 }
  - { offsetInCU: 0xA15, offset: 0x221A8, size: 0x8, addend: 0x0, symName: __ZN3thcL15queen_lookup_e7E, symObjAddr: 0x7FEE0, symBinAddr: 0x1000A4BC0, symSize: 0x0 }
  - { offsetInCU: 0xA30, offset: 0x221C3, size: 0x8, addend: 0x0, symName: __ZN3thcL15queen_lookup_f7E, symObjAddr: 0x7FF20, symBinAddr: 0x1000A4C00, symSize: 0x0 }
  - { offsetInCU: 0xA4B, offset: 0x221DE, size: 0x8, addend: 0x0, symName: __ZN3thcL15queen_lookup_g7E, symObjAddr: 0x7FF60, symBinAddr: 0x1000A4C40, symSize: 0x0 }
  - { offsetInCU: 0xA66, offset: 0x221F9, size: 0x8, addend: 0x0, symName: __ZN3thcL15queen_lookup_h7E, symObjAddr: 0x7FFA0, symBinAddr: 0x1000A4C80, symSize: 0x0 }
  - { offsetInCU: 0xA81, offset: 0x22214, size: 0x8, addend: 0x0, symName: __ZN3thcL15queen_lookup_a6E, symObjAddr: 0x7FFE0, symBinAddr: 0x1000A4CC0, symSize: 0x0 }
  - { offsetInCU: 0xA9C, offset: 0x2222F, size: 0x8, addend: 0x0, symName: __ZN3thcL15queen_lookup_b6E, symObjAddr: 0x80020, symBinAddr: 0x1000A4D00, symSize: 0x0 }
  - { offsetInCU: 0xAB7, offset: 0x2224A, size: 0x8, addend: 0x0, symName: __ZN3thcL15queen_lookup_c6E, symObjAddr: 0x80060, symBinAddr: 0x1000A4D40, symSize: 0x0 }
  - { offsetInCU: 0xAD2, offset: 0x22265, size: 0x8, addend: 0x0, symName: __ZN3thcL15queen_lookup_d6E, symObjAddr: 0x800C0, symBinAddr: 0x1000A4DA0, symSize: 0x0 }
  - { offsetInCU: 0xAED, offset: 0x22280, size: 0x8, addend: 0x0, symName: __ZN3thcL15queen_lookup_e6E, symObjAddr: 0x80120, symBinAddr: 0x1000A4E00, symSize: 0x0 }
  - { offsetInCU: 0xB08, offset: 0x2229B, size: 0x8, addend: 0x0, symName: __ZN3thcL15queen_lookup_f6E, symObjAddr: 0x80180, symBinAddr: 0x1000A4E60, symSize: 0x0 }
  - { offsetInCU: 0xB23, offset: 0x222B6, size: 0x8, addend: 0x0, symName: __ZN3thcL15queen_lookup_g6E, symObjAddr: 0x801E0, symBinAddr: 0x1000A4EC0, symSize: 0x0 }
  - { offsetInCU: 0xB3E, offset: 0x222D1, size: 0x8, addend: 0x0, symName: __ZN3thcL15queen_lookup_h6E, symObjAddr: 0x80220, symBinAddr: 0x1000A4F00, symSize: 0x0 }
  - { offsetInCU: 0xB59, offset: 0x222EC, size: 0x8, addend: 0x0, symName: __ZN3thcL15queen_lookup_a5E, symObjAddr: 0x80260, symBinAddr: 0x1000A4F40, symSize: 0x0 }
  - { offsetInCU: 0xB74, offset: 0x22307, size: 0x8, addend: 0x0, symName: __ZN3thcL15queen_lookup_b5E, symObjAddr: 0x802A0, symBinAddr: 0x1000A4F80, symSize: 0x0 }
  - { offsetInCU: 0xB8F, offset: 0x22322, size: 0x8, addend: 0x0, symName: __ZN3thcL15queen_lookup_c5E, symObjAddr: 0x802E0, symBinAddr: 0x1000A4FC0, symSize: 0x0 }
  - { offsetInCU: 0xBAA, offset: 0x2233D, size: 0x8, addend: 0x0, symName: __ZN3thcL15queen_lookup_d5E, symObjAddr: 0x80340, symBinAddr: 0x1000A5020, symSize: 0x0 }
  - { offsetInCU: 0xBC5, offset: 0x22358, size: 0x8, addend: 0x0, symName: __ZN3thcL15queen_lookup_e5E, symObjAddr: 0x803A0, symBinAddr: 0x1000A5080, symSize: 0x0 }
  - { offsetInCU: 0xBE0, offset: 0x22373, size: 0x8, addend: 0x0, symName: __ZN3thcL15queen_lookup_f5E, symObjAddr: 0x80400, symBinAddr: 0x1000A50E0, symSize: 0x0 }
  - { offsetInCU: 0xBFB, offset: 0x2238E, size: 0x8, addend: 0x0, symName: __ZN3thcL15queen_lookup_g5E, symObjAddr: 0x80460, symBinAddr: 0x1000A5140, symSize: 0x0 }
  - { offsetInCU: 0xC16, offset: 0x223A9, size: 0x8, addend: 0x0, symName: __ZN3thcL15queen_lookup_h5E, symObjAddr: 0x804A0, symBinAddr: 0x1000A5180, symSize: 0x0 }
  - { offsetInCU: 0xC31, offset: 0x223C4, size: 0x8, addend: 0x0, symName: __ZN3thcL15queen_lookup_a4E, symObjAddr: 0x804E0, symBinAddr: 0x1000A51C0, symSize: 0x0 }
  - { offsetInCU: 0xC4C, offset: 0x223DF, size: 0x8, addend: 0x0, symName: __ZN3thcL15queen_lookup_b4E, symObjAddr: 0x80520, symBinAddr: 0x1000A5200, symSize: 0x0 }
  - { offsetInCU: 0xC67, offset: 0x223FA, size: 0x8, addend: 0x0, symName: __ZN3thcL15queen_lookup_c4E, symObjAddr: 0x80560, symBinAddr: 0x1000A5240, symSize: 0x0 }
  - { offsetInCU: 0xC82, offset: 0x22415, size: 0x8, addend: 0x0, symName: __ZN3thcL15queen_lookup_d4E, symObjAddr: 0x805C0, symBinAddr: 0x1000A52A0, symSize: 0x0 }
  - { offsetInCU: 0xC9D, offset: 0x22430, size: 0x8, addend: 0x0, symName: __ZN3thcL15queen_lookup_e4E, symObjAddr: 0x80620, symBinAddr: 0x1000A5300, symSize: 0x0 }
  - { offsetInCU: 0xCB8, offset: 0x2244B, size: 0x8, addend: 0x0, symName: __ZN3thcL15queen_lookup_f4E, symObjAddr: 0x80680, symBinAddr: 0x1000A5360, symSize: 0x0 }
  - { offsetInCU: 0xCD3, offset: 0x22466, size: 0x8, addend: 0x0, symName: __ZN3thcL15queen_lookup_g4E, symObjAddr: 0x806E0, symBinAddr: 0x1000A53C0, symSize: 0x0 }
  - { offsetInCU: 0xCEE, offset: 0x22481, size: 0x8, addend: 0x0, symName: __ZN3thcL15queen_lookup_h4E, symObjAddr: 0x80720, symBinAddr: 0x1000A5400, symSize: 0x0 }
  - { offsetInCU: 0xD09, offset: 0x2249C, size: 0x8, addend: 0x0, symName: __ZN3thcL15queen_lookup_a3E, symObjAddr: 0x80760, symBinAddr: 0x1000A5440, symSize: 0x0 }
  - { offsetInCU: 0xD24, offset: 0x224B7, size: 0x8, addend: 0x0, symName: __ZN3thcL15queen_lookup_b3E, symObjAddr: 0x807A0, symBinAddr: 0x1000A5480, symSize: 0x0 }
  - { offsetInCU: 0xD3F, offset: 0x224D2, size: 0x8, addend: 0x0, symName: __ZN3thcL15queen_lookup_c3E, symObjAddr: 0x807E0, symBinAddr: 0x1000A54C0, symSize: 0x0 }
  - { offsetInCU: 0xD5A, offset: 0x224ED, size: 0x8, addend: 0x0, symName: __ZN3thcL15queen_lookup_d3E, symObjAddr: 0x80840, symBinAddr: 0x1000A5520, symSize: 0x0 }
  - { offsetInCU: 0xD75, offset: 0x22508, size: 0x8, addend: 0x0, symName: __ZN3thcL15queen_lookup_e3E, symObjAddr: 0x808A0, symBinAddr: 0x1000A5580, symSize: 0x0 }
  - { offsetInCU: 0xD90, offset: 0x22523, size: 0x8, addend: 0x0, symName: __ZN3thcL15queen_lookup_f3E, symObjAddr: 0x80900, symBinAddr: 0x1000A55E0, symSize: 0x0 }
  - { offsetInCU: 0xDAB, offset: 0x2253E, size: 0x8, addend: 0x0, symName: __ZN3thcL15queen_lookup_g3E, symObjAddr: 0x80960, symBinAddr: 0x1000A5640, symSize: 0x0 }
  - { offsetInCU: 0xDC6, offset: 0x22559, size: 0x8, addend: 0x0, symName: __ZN3thcL15queen_lookup_h3E, symObjAddr: 0x809A0, symBinAddr: 0x1000A5680, symSize: 0x0 }
  - { offsetInCU: 0xDE1, offset: 0x22574, size: 0x8, addend: 0x0, symName: __ZN3thcL15queen_lookup_a2E, symObjAddr: 0x809E0, symBinAddr: 0x1000A56C0, symSize: 0x0 }
  - { offsetInCU: 0xDFC, offset: 0x2258F, size: 0x8, addend: 0x0, symName: __ZN3thcL15queen_lookup_b2E, symObjAddr: 0x80A20, symBinAddr: 0x1000A5700, symSize: 0x0 }
  - { offsetInCU: 0xE17, offset: 0x225AA, size: 0x8, addend: 0x0, symName: __ZN3thcL15queen_lookup_c2E, symObjAddr: 0x80A60, symBinAddr: 0x1000A5740, symSize: 0x0 }
  - { offsetInCU: 0xE32, offset: 0x225C5, size: 0x8, addend: 0x0, symName: __ZN3thcL15queen_lookup_d2E, symObjAddr: 0x80AA0, symBinAddr: 0x1000A5780, symSize: 0x0 }
  - { offsetInCU: 0xE4D, offset: 0x225E0, size: 0x8, addend: 0x0, symName: __ZN3thcL15queen_lookup_e2E, symObjAddr: 0x80AE0, symBinAddr: 0x1000A57C0, symSize: 0x0 }
  - { offsetInCU: 0xE68, offset: 0x225FB, size: 0x8, addend: 0x0, symName: __ZN3thcL15queen_lookup_f2E, symObjAddr: 0x80B20, symBinAddr: 0x1000A5800, symSize: 0x0 }
  - { offsetInCU: 0xE83, offset: 0x22616, size: 0x8, addend: 0x0, symName: __ZN3thcL15queen_lookup_g2E, symObjAddr: 0x80B60, symBinAddr: 0x1000A5840, symSize: 0x0 }
  - { offsetInCU: 0xE9E, offset: 0x22631, size: 0x8, addend: 0x0, symName: __ZN3thcL15queen_lookup_h2E, symObjAddr: 0x80BA0, symBinAddr: 0x1000A5880, symSize: 0x0 }
  - { offsetInCU: 0xEB9, offset: 0x2264C, size: 0x8, addend: 0x0, symName: __ZN3thcL15queen_lookup_a1E, symObjAddr: 0x80BE0, symBinAddr: 0x1000A58C0, symSize: 0x0 }
  - { offsetInCU: 0xED4, offset: 0x22667, size: 0x8, addend: 0x0, symName: __ZN3thcL15queen_lookup_b1E, symObjAddr: 0x80C20, symBinAddr: 0x1000A5900, symSize: 0x0 }
  - { offsetInCU: 0xEEF, offset: 0x22682, size: 0x8, addend: 0x0, symName: __ZN3thcL15queen_lookup_c1E, symObjAddr: 0x80C60, symBinAddr: 0x1000A5940, symSize: 0x0 }
  - { offsetInCU: 0xF0A, offset: 0x2269D, size: 0x8, addend: 0x0, symName: __ZN3thcL15queen_lookup_d1E, symObjAddr: 0x80CA0, symBinAddr: 0x1000A5980, symSize: 0x0 }
  - { offsetInCU: 0xF25, offset: 0x226B8, size: 0x8, addend: 0x0, symName: __ZN3thcL15queen_lookup_e1E, symObjAddr: 0x80CE0, symBinAddr: 0x1000A59C0, symSize: 0x0 }
  - { offsetInCU: 0xF40, offset: 0x226D3, size: 0x8, addend: 0x0, symName: __ZN3thcL15queen_lookup_f1E, symObjAddr: 0x80D20, symBinAddr: 0x1000A5A00, symSize: 0x0 }
  - { offsetInCU: 0xF5B, offset: 0x226EE, size: 0x8, addend: 0x0, symName: __ZN3thcL15queen_lookup_g1E, symObjAddr: 0x80D60, symBinAddr: 0x1000A5A40, symSize: 0x0 }
  - { offsetInCU: 0xF76, offset: 0x22709, size: 0x8, addend: 0x0, symName: __ZN3thcL15queen_lookup_h1E, symObjAddr: 0x71420, symBinAddr: 0x1000A3DA0, symSize: 0x0 }
  - { offsetInCU: 0xF91, offset: 0x22724, size: 0x8, addend: 0x0, symName: __ZN3thcL14rook_lookup_a8E, symObjAddr: 0x80DA0, symBinAddr: 0x1000A5A80, symSize: 0x0 }
  - { offsetInCU: 0xFAC, offset: 0x2273F, size: 0x8, addend: 0x0, symName: __ZN3thcL14rook_lookup_b8E, symObjAddr: 0x80DE0, symBinAddr: 0x1000A5AC0, symSize: 0x0 }
  - { offsetInCU: 0xFC7, offset: 0x2275A, size: 0x8, addend: 0x0, symName: __ZN3thcL14rook_lookup_c8E, symObjAddr: 0x80E20, symBinAddr: 0x1000A5B00, symSize: 0x0 }
  - { offsetInCU: 0xFE2, offset: 0x22775, size: 0x8, addend: 0x0, symName: __ZN3thcL14rook_lookup_d8E, symObjAddr: 0x80E60, symBinAddr: 0x1000A5B40, symSize: 0x0 }
  - { offsetInCU: 0xFFD, offset: 0x22790, size: 0x8, addend: 0x0, symName: __ZN3thcL14rook_lookup_e8E, symObjAddr: 0x80EA0, symBinAddr: 0x1000A5B80, symSize: 0x0 }
  - { offsetInCU: 0x1018, offset: 0x227AB, size: 0x8, addend: 0x0, symName: __ZN3thcL14rook_lookup_f8E, symObjAddr: 0x80EE0, symBinAddr: 0x1000A5BC0, symSize: 0x0 }
  - { offsetInCU: 0x1033, offset: 0x227C6, size: 0x8, addend: 0x0, symName: __ZN3thcL14rook_lookup_g8E, symObjAddr: 0x80F20, symBinAddr: 0x1000A5C00, symSize: 0x0 }
  - { offsetInCU: 0x104E, offset: 0x227E1, size: 0x8, addend: 0x0, symName: __ZN3thcL14rook_lookup_h8E, symObjAddr: 0x80F60, symBinAddr: 0x1000A5C40, symSize: 0x0 }
  - { offsetInCU: 0x1069, offset: 0x227FC, size: 0x8, addend: 0x0, symName: __ZN3thcL14rook_lookup_a7E, symObjAddr: 0x71460, symBinAddr: 0x1000A3DE0, symSize: 0x0 }
  - { offsetInCU: 0x1084, offset: 0x22817, size: 0x8, addend: 0x0, symName: __ZN3thcL14rook_lookup_b7E, symObjAddr: 0x80FA0, symBinAddr: 0x1000A5C80, symSize: 0x0 }
  - { offsetInCU: 0x109F, offset: 0x22832, size: 0x8, addend: 0x0, symName: __ZN3thcL14rook_lookup_c7E, symObjAddr: 0x80FE0, symBinAddr: 0x1000A5CC0, symSize: 0x0 }
  - { offsetInCU: 0x10BA, offset: 0x2284D, size: 0x8, addend: 0x0, symName: __ZN3thcL14rook_lookup_d7E, symObjAddr: 0x81020, symBinAddr: 0x1000A5D00, symSize: 0x0 }
  - { offsetInCU: 0x10D5, offset: 0x22868, size: 0x8, addend: 0x0, symName: __ZN3thcL14rook_lookup_e7E, symObjAddr: 0x81060, symBinAddr: 0x1000A5D40, symSize: 0x0 }
  - { offsetInCU: 0x10F0, offset: 0x22883, size: 0x8, addend: 0x0, symName: __ZN3thcL14rook_lookup_f7E, symObjAddr: 0x810A0, symBinAddr: 0x1000A5D80, symSize: 0x0 }
  - { offsetInCU: 0x110B, offset: 0x2289E, size: 0x8, addend: 0x0, symName: __ZN3thcL14rook_lookup_g7E, symObjAddr: 0x810E0, symBinAddr: 0x1000A5DC0, symSize: 0x0 }
  - { offsetInCU: 0x1126, offset: 0x228B9, size: 0x8, addend: 0x0, symName: __ZN3thcL14rook_lookup_h7E, symObjAddr: 0x81120, symBinAddr: 0x1000A5E00, symSize: 0x0 }
  - { offsetInCU: 0x1141, offset: 0x228D4, size: 0x8, addend: 0x0, symName: __ZN3thcL14rook_lookup_a6E, symObjAddr: 0x714A0, symBinAddr: 0x1000A3E20, symSize: 0x0 }
  - { offsetInCU: 0x115C, offset: 0x228EF, size: 0x8, addend: 0x0, symName: __ZN3thcL14rook_lookup_b6E, symObjAddr: 0x81160, symBinAddr: 0x1000A5E40, symSize: 0x0 }
  - { offsetInCU: 0x1177, offset: 0x2290A, size: 0x8, addend: 0x0, symName: __ZN3thcL14rook_lookup_c6E, symObjAddr: 0x811A0, symBinAddr: 0x1000A5E80, symSize: 0x0 }
  - { offsetInCU: 0x1192, offset: 0x22925, size: 0x8, addend: 0x0, symName: __ZN3thcL14rook_lookup_d6E, symObjAddr: 0x811E0, symBinAddr: 0x1000A5EC0, symSize: 0x0 }
  - { offsetInCU: 0x11AD, offset: 0x22940, size: 0x8, addend: 0x0, symName: __ZN3thcL14rook_lookup_e6E, symObjAddr: 0x81220, symBinAddr: 0x1000A5F00, symSize: 0x0 }
  - { offsetInCU: 0x11C8, offset: 0x2295B, size: 0x8, addend: 0x0, symName: __ZN3thcL14rook_lookup_f6E, symObjAddr: 0x81260, symBinAddr: 0x1000A5F40, symSize: 0x0 }
  - { offsetInCU: 0x11E3, offset: 0x22976, size: 0x8, addend: 0x0, symName: __ZN3thcL14rook_lookup_g6E, symObjAddr: 0x812A0, symBinAddr: 0x1000A5F80, symSize: 0x0 }
  - { offsetInCU: 0x11FE, offset: 0x22991, size: 0x8, addend: 0x0, symName: __ZN3thcL14rook_lookup_h6E, symObjAddr: 0x812E0, symBinAddr: 0x1000A5FC0, symSize: 0x0 }
  - { offsetInCU: 0x1219, offset: 0x229AC, size: 0x8, addend: 0x0, symName: __ZN3thcL14rook_lookup_a5E, symObjAddr: 0x714E0, symBinAddr: 0x1000A3E60, symSize: 0x0 }
  - { offsetInCU: 0x1234, offset: 0x229C7, size: 0x8, addend: 0x0, symName: __ZN3thcL14rook_lookup_b5E, symObjAddr: 0x81320, symBinAddr: 0x1000A6000, symSize: 0x0 }
  - { offsetInCU: 0x124F, offset: 0x229E2, size: 0x8, addend: 0x0, symName: __ZN3thcL14rook_lookup_c5E, symObjAddr: 0x81360, symBinAddr: 0x1000A6040, symSize: 0x0 }
  - { offsetInCU: 0x126A, offset: 0x229FD, size: 0x8, addend: 0x0, symName: __ZN3thcL14rook_lookup_d5E, symObjAddr: 0x813A0, symBinAddr: 0x1000A6080, symSize: 0x0 }
  - { offsetInCU: 0x1285, offset: 0x22A18, size: 0x8, addend: 0x0, symName: __ZN3thcL14rook_lookup_e5E, symObjAddr: 0x813E0, symBinAddr: 0x1000A60C0, symSize: 0x0 }
  - { offsetInCU: 0x12A0, offset: 0x22A33, size: 0x8, addend: 0x0, symName: __ZN3thcL14rook_lookup_f5E, symObjAddr: 0x81420, symBinAddr: 0x1000A6100, symSize: 0x0 }
  - { offsetInCU: 0x12BB, offset: 0x22A4E, size: 0x8, addend: 0x0, symName: __ZN3thcL14rook_lookup_g5E, symObjAddr: 0x81460, symBinAddr: 0x1000A6140, symSize: 0x0 }
  - { offsetInCU: 0x12D6, offset: 0x22A69, size: 0x8, addend: 0x0, symName: __ZN3thcL14rook_lookup_h5E, symObjAddr: 0x814A0, symBinAddr: 0x1000A6180, symSize: 0x0 }
  - { offsetInCU: 0x12F1, offset: 0x22A84, size: 0x8, addend: 0x0, symName: __ZN3thcL14rook_lookup_a4E, symObjAddr: 0x71520, symBinAddr: 0x1000A3EA0, symSize: 0x0 }
  - { offsetInCU: 0x130C, offset: 0x22A9F, size: 0x8, addend: 0x0, symName: __ZN3thcL14rook_lookup_b4E, symObjAddr: 0x814E0, symBinAddr: 0x1000A61C0, symSize: 0x0 }
  - { offsetInCU: 0x1327, offset: 0x22ABA, size: 0x8, addend: 0x0, symName: __ZN3thcL14rook_lookup_c4E, symObjAddr: 0x81520, symBinAddr: 0x1000A6200, symSize: 0x0 }
  - { offsetInCU: 0x1342, offset: 0x22AD5, size: 0x8, addend: 0x0, symName: __ZN3thcL14rook_lookup_d4E, symObjAddr: 0x81560, symBinAddr: 0x1000A6240, symSize: 0x0 }
  - { offsetInCU: 0x135D, offset: 0x22AF0, size: 0x8, addend: 0x0, symName: __ZN3thcL14rook_lookup_e4E, symObjAddr: 0x815A0, symBinAddr: 0x1000A6280, symSize: 0x0 }
  - { offsetInCU: 0x1378, offset: 0x22B0B, size: 0x8, addend: 0x0, symName: __ZN3thcL14rook_lookup_f4E, symObjAddr: 0x815E0, symBinAddr: 0x1000A62C0, symSize: 0x0 }
  - { offsetInCU: 0x1393, offset: 0x22B26, size: 0x8, addend: 0x0, symName: __ZN3thcL14rook_lookup_g4E, symObjAddr: 0x81620, symBinAddr: 0x1000A6300, symSize: 0x0 }
  - { offsetInCU: 0x13AE, offset: 0x22B41, size: 0x8, addend: 0x0, symName: __ZN3thcL14rook_lookup_h4E, symObjAddr: 0x81660, symBinAddr: 0x1000A6340, symSize: 0x0 }
  - { offsetInCU: 0x13C9, offset: 0x22B5C, size: 0x8, addend: 0x0, symName: __ZN3thcL14rook_lookup_a3E, symObjAddr: 0x71560, symBinAddr: 0x1000A3EE0, symSize: 0x0 }
  - { offsetInCU: 0x13E4, offset: 0x22B77, size: 0x8, addend: 0x0, symName: __ZN3thcL14rook_lookup_b3E, symObjAddr: 0x816A0, symBinAddr: 0x1000A6380, symSize: 0x0 }
  - { offsetInCU: 0x13FF, offset: 0x22B92, size: 0x8, addend: 0x0, symName: __ZN3thcL14rook_lookup_c3E, symObjAddr: 0x816E0, symBinAddr: 0x1000A63C0, symSize: 0x0 }
  - { offsetInCU: 0x141A, offset: 0x22BAD, size: 0x8, addend: 0x0, symName: __ZN3thcL14rook_lookup_d3E, symObjAddr: 0x81720, symBinAddr: 0x1000A6400, symSize: 0x0 }
  - { offsetInCU: 0x1435, offset: 0x22BC8, size: 0x8, addend: 0x0, symName: __ZN3thcL14rook_lookup_e3E, symObjAddr: 0x81760, symBinAddr: 0x1000A6440, symSize: 0x0 }
  - { offsetInCU: 0x1450, offset: 0x22BE3, size: 0x8, addend: 0x0, symName: __ZN3thcL14rook_lookup_f3E, symObjAddr: 0x817A0, symBinAddr: 0x1000A6480, symSize: 0x0 }
  - { offsetInCU: 0x146B, offset: 0x22BFE, size: 0x8, addend: 0x0, symName: __ZN3thcL14rook_lookup_g3E, symObjAddr: 0x817E0, symBinAddr: 0x1000A64C0, symSize: 0x0 }
  - { offsetInCU: 0x1486, offset: 0x22C19, size: 0x8, addend: 0x0, symName: __ZN3thcL14rook_lookup_h3E, symObjAddr: 0x81820, symBinAddr: 0x1000A6500, symSize: 0x0 }
  - { offsetInCU: 0x14A1, offset: 0x22C34, size: 0x8, addend: 0x0, symName: __ZN3thcL14rook_lookup_a2E, symObjAddr: 0x715A0, symBinAddr: 0x1000A3F20, symSize: 0x0 }
  - { offsetInCU: 0x14BC, offset: 0x22C4F, size: 0x8, addend: 0x0, symName: __ZN3thcL14rook_lookup_b2E, symObjAddr: 0x81860, symBinAddr: 0x1000A6540, symSize: 0x0 }
  - { offsetInCU: 0x14D7, offset: 0x22C6A, size: 0x8, addend: 0x0, symName: __ZN3thcL14rook_lookup_c2E, symObjAddr: 0x818A0, symBinAddr: 0x1000A6580, symSize: 0x0 }
  - { offsetInCU: 0x14F2, offset: 0x22C85, size: 0x8, addend: 0x0, symName: __ZN3thcL14rook_lookup_d2E, symObjAddr: 0x818E0, symBinAddr: 0x1000A65C0, symSize: 0x0 }
  - { offsetInCU: 0x150D, offset: 0x22CA0, size: 0x8, addend: 0x0, symName: __ZN3thcL14rook_lookup_e2E, symObjAddr: 0x81920, symBinAddr: 0x1000A6600, symSize: 0x0 }
  - { offsetInCU: 0x1528, offset: 0x22CBB, size: 0x8, addend: 0x0, symName: __ZN3thcL14rook_lookup_f2E, symObjAddr: 0x81960, symBinAddr: 0x1000A6640, symSize: 0x0 }
  - { offsetInCU: 0x1543, offset: 0x22CD6, size: 0x8, addend: 0x0, symName: __ZN3thcL14rook_lookup_g2E, symObjAddr: 0x819A0, symBinAddr: 0x1000A6680, symSize: 0x0 }
  - { offsetInCU: 0x155E, offset: 0x22CF1, size: 0x8, addend: 0x0, symName: __ZN3thcL14rook_lookup_h2E, symObjAddr: 0x819E0, symBinAddr: 0x1000A66C0, symSize: 0x0 }
  - { offsetInCU: 0x1579, offset: 0x22D0C, size: 0x8, addend: 0x0, symName: __ZN3thcL14rook_lookup_a1E, symObjAddr: 0x715E0, symBinAddr: 0x1000A3F60, symSize: 0x0 }
  - { offsetInCU: 0x1594, offset: 0x22D27, size: 0x8, addend: 0x0, symName: __ZN3thcL14rook_lookup_b1E, symObjAddr: 0x81A20, symBinAddr: 0x1000A6700, symSize: 0x0 }
  - { offsetInCU: 0x15AF, offset: 0x22D42, size: 0x8, addend: 0x0, symName: __ZN3thcL14rook_lookup_c1E, symObjAddr: 0x81A60, symBinAddr: 0x1000A6740, symSize: 0x0 }
  - { offsetInCU: 0x15CA, offset: 0x22D5D, size: 0x8, addend: 0x0, symName: __ZN3thcL14rook_lookup_d1E, symObjAddr: 0x81AA0, symBinAddr: 0x1000A6780, symSize: 0x0 }
  - { offsetInCU: 0x15E5, offset: 0x22D78, size: 0x8, addend: 0x0, symName: __ZN3thcL14rook_lookup_e1E, symObjAddr: 0x81AE0, symBinAddr: 0x1000A67C0, symSize: 0x0 }
  - { offsetInCU: 0x1600, offset: 0x22D93, size: 0x8, addend: 0x0, symName: __ZN3thcL14rook_lookup_f1E, symObjAddr: 0x81B20, symBinAddr: 0x1000A6800, symSize: 0x0 }
  - { offsetInCU: 0x161B, offset: 0x22DAE, size: 0x8, addend: 0x0, symName: __ZN3thcL14rook_lookup_g1E, symObjAddr: 0x81B60, symBinAddr: 0x1000A6840, symSize: 0x0 }
  - { offsetInCU: 0x1636, offset: 0x22DC9, size: 0x8, addend: 0x0, symName: __ZN3thcL14rook_lookup_h1E, symObjAddr: 0x81BA0, symBinAddr: 0x1000A6880, symSize: 0x0 }
  - { offsetInCU: 0x1651, offset: 0x22DE4, size: 0x8, addend: 0x0, symName: __ZN3thcL16bishop_lookup_a8E, symObjAddr: 0x81BE0, symBinAddr: 0x1000A68C0, symSize: 0x0 }
  - { offsetInCU: 0x166C, offset: 0x22DFF, size: 0x8, addend: 0x0, symName: __ZN3thcL16bishop_lookup_b8E, symObjAddr: 0x81C00, symBinAddr: 0x1000A68E0, symSize: 0x0 }
  - { offsetInCU: 0x1687, offset: 0x22E1A, size: 0x8, addend: 0x0, symName: __ZN3thcL16bishop_lookup_c8E, symObjAddr: 0x81C20, symBinAddr: 0x1000A6900, symSize: 0x0 }
  - { offsetInCU: 0x16A2, offset: 0x22E35, size: 0x8, addend: 0x0, symName: __ZN3thcL16bishop_lookup_d8E, symObjAddr: 0x81C40, symBinAddr: 0x1000A6920, symSize: 0x0 }
  - { offsetInCU: 0x16BD, offset: 0x22E50, size: 0x8, addend: 0x0, symName: __ZN3thcL16bishop_lookup_e8E, symObjAddr: 0x81C60, symBinAddr: 0x1000A6940, symSize: 0x0 }
  - { offsetInCU: 0x16D8, offset: 0x22E6B, size: 0x8, addend: 0x0, symName: __ZN3thcL16bishop_lookup_f8E, symObjAddr: 0x81C80, symBinAddr: 0x1000A6960, symSize: 0x0 }
  - { offsetInCU: 0x16F3, offset: 0x22E86, size: 0x8, addend: 0x0, symName: __ZN3thcL16bishop_lookup_g8E, symObjAddr: 0x81CA0, symBinAddr: 0x1000A6980, symSize: 0x0 }
  - { offsetInCU: 0x170E, offset: 0x22EA1, size: 0x8, addend: 0x0, symName: __ZN3thcL16bishop_lookup_h8E, symObjAddr: 0x81CC0, symBinAddr: 0x1000A69A0, symSize: 0x0 }
  - { offsetInCU: 0x1729, offset: 0x22EBC, size: 0x8, addend: 0x0, symName: __ZN3thcL16bishop_lookup_a7E, symObjAddr: 0x81CE0, symBinAddr: 0x1000A69C0, symSize: 0x0 }
  - { offsetInCU: 0x1744, offset: 0x22ED7, size: 0x8, addend: 0x0, symName: __ZN3thcL16bishop_lookup_b7E, symObjAddr: 0x81D00, symBinAddr: 0x1000A69E0, symSize: 0x0 }
  - { offsetInCU: 0x175F, offset: 0x22EF2, size: 0x8, addend: 0x0, symName: __ZN3thcL16bishop_lookup_c7E, symObjAddr: 0x81D20, symBinAddr: 0x1000A6A00, symSize: 0x0 }
  - { offsetInCU: 0x177A, offset: 0x22F0D, size: 0x8, addend: 0x0, symName: __ZN3thcL16bishop_lookup_d7E, symObjAddr: 0x81D40, symBinAddr: 0x1000A6A20, symSize: 0x0 }
  - { offsetInCU: 0x1795, offset: 0x22F28, size: 0x8, addend: 0x0, symName: __ZN3thcL16bishop_lookup_e7E, symObjAddr: 0x81D60, symBinAddr: 0x1000A6A40, symSize: 0x0 }
  - { offsetInCU: 0x17B0, offset: 0x22F43, size: 0x8, addend: 0x0, symName: __ZN3thcL16bishop_lookup_f7E, symObjAddr: 0x81D80, symBinAddr: 0x1000A6A60, symSize: 0x0 }
  - { offsetInCU: 0x17CB, offset: 0x22F5E, size: 0x8, addend: 0x0, symName: __ZN3thcL16bishop_lookup_g7E, symObjAddr: 0x81DA0, symBinAddr: 0x1000A6A80, symSize: 0x0 }
  - { offsetInCU: 0x17E6, offset: 0x22F79, size: 0x8, addend: 0x0, symName: __ZN3thcL16bishop_lookup_h7E, symObjAddr: 0x81DC0, symBinAddr: 0x1000A6AA0, symSize: 0x0 }
  - { offsetInCU: 0x1801, offset: 0x22F94, size: 0x8, addend: 0x0, symName: __ZN3thcL16bishop_lookup_a6E, symObjAddr: 0x81DE0, symBinAddr: 0x1000A6AC0, symSize: 0x0 }
  - { offsetInCU: 0x181C, offset: 0x22FAF, size: 0x8, addend: 0x0, symName: __ZN3thcL16bishop_lookup_b6E, symObjAddr: 0x81E00, symBinAddr: 0x1000A6AE0, symSize: 0x0 }
  - { offsetInCU: 0x1837, offset: 0x22FCA, size: 0x8, addend: 0x0, symName: __ZN3thcL16bishop_lookup_c6E, symObjAddr: 0x81E20, symBinAddr: 0x1000A6B00, symSize: 0x0 }
  - { offsetInCU: 0x1852, offset: 0x22FE5, size: 0x8, addend: 0x0, symName: __ZN3thcL16bishop_lookup_d6E, symObjAddr: 0x81E40, symBinAddr: 0x1000A6B20, symSize: 0x0 }
  - { offsetInCU: 0x186D, offset: 0x23000, size: 0x8, addend: 0x0, symName: __ZN3thcL16bishop_lookup_e6E, symObjAddr: 0x81E60, symBinAddr: 0x1000A6B40, symSize: 0x0 }
  - { offsetInCU: 0x1888, offset: 0x2301B, size: 0x8, addend: 0x0, symName: __ZN3thcL16bishop_lookup_f6E, symObjAddr: 0x81E80, symBinAddr: 0x1000A6B60, symSize: 0x0 }
  - { offsetInCU: 0x18A3, offset: 0x23036, size: 0x8, addend: 0x0, symName: __ZN3thcL16bishop_lookup_g6E, symObjAddr: 0x81EA0, symBinAddr: 0x1000A6B80, symSize: 0x0 }
  - { offsetInCU: 0x18BE, offset: 0x23051, size: 0x8, addend: 0x0, symName: __ZN3thcL16bishop_lookup_h6E, symObjAddr: 0x81EC0, symBinAddr: 0x1000A6BA0, symSize: 0x0 }
  - { offsetInCU: 0x18D9, offset: 0x2306C, size: 0x8, addend: 0x0, symName: __ZN3thcL16bishop_lookup_a5E, symObjAddr: 0x81EE0, symBinAddr: 0x1000A6BC0, symSize: 0x0 }
  - { offsetInCU: 0x18F4, offset: 0x23087, size: 0x8, addend: 0x0, symName: __ZN3thcL16bishop_lookup_b5E, symObjAddr: 0x81F00, symBinAddr: 0x1000A6BE0, symSize: 0x0 }
  - { offsetInCU: 0x190F, offset: 0x230A2, size: 0x8, addend: 0x0, symName: __ZN3thcL16bishop_lookup_c5E, symObjAddr: 0x81F20, symBinAddr: 0x1000A6C00, symSize: 0x0 }
  - { offsetInCU: 0x192A, offset: 0x230BD, size: 0x8, addend: 0x0, symName: __ZN3thcL16bishop_lookup_d5E, symObjAddr: 0x81F40, symBinAddr: 0x1000A6C20, symSize: 0x0 }
  - { offsetInCU: 0x1945, offset: 0x230D8, size: 0x8, addend: 0x0, symName: __ZN3thcL16bishop_lookup_e5E, symObjAddr: 0x81F80, symBinAddr: 0x1000A6C60, symSize: 0x0 }
  - { offsetInCU: 0x1960, offset: 0x230F3, size: 0x8, addend: 0x0, symName: __ZN3thcL16bishop_lookup_f5E, symObjAddr: 0x81FC0, symBinAddr: 0x1000A6CA0, symSize: 0x0 }
  - { offsetInCU: 0x197B, offset: 0x2310E, size: 0x8, addend: 0x0, symName: __ZN3thcL16bishop_lookup_g5E, symObjAddr: 0x81FE0, symBinAddr: 0x1000A6CC0, symSize: 0x0 }
  - { offsetInCU: 0x1996, offset: 0x23129, size: 0x8, addend: 0x0, symName: __ZN3thcL16bishop_lookup_h5E, symObjAddr: 0x82000, symBinAddr: 0x1000A6CE0, symSize: 0x0 }
  - { offsetInCU: 0x19B1, offset: 0x23144, size: 0x8, addend: 0x0, symName: __ZN3thcL16bishop_lookup_a4E, symObjAddr: 0x82020, symBinAddr: 0x1000A6D00, symSize: 0x0 }
  - { offsetInCU: 0x19CC, offset: 0x2315F, size: 0x8, addend: 0x0, symName: __ZN3thcL16bishop_lookup_b4E, symObjAddr: 0x82040, symBinAddr: 0x1000A6D20, symSize: 0x0 }
  - { offsetInCU: 0x19E7, offset: 0x2317A, size: 0x8, addend: 0x0, symName: __ZN3thcL16bishop_lookup_c4E, symObjAddr: 0x82060, symBinAddr: 0x1000A6D40, symSize: 0x0 }
  - { offsetInCU: 0x1A02, offset: 0x23195, size: 0x8, addend: 0x0, symName: __ZN3thcL16bishop_lookup_d4E, symObjAddr: 0x82080, symBinAddr: 0x1000A6D60, symSize: 0x0 }
  - { offsetInCU: 0x1A1D, offset: 0x231B0, size: 0x8, addend: 0x0, symName: __ZN3thcL16bishop_lookup_e4E, symObjAddr: 0x820C0, symBinAddr: 0x1000A6DA0, symSize: 0x0 }
  - { offsetInCU: 0x1A38, offset: 0x231CB, size: 0x8, addend: 0x0, symName: __ZN3thcL16bishop_lookup_f4E, symObjAddr: 0x82100, symBinAddr: 0x1000A6DE0, symSize: 0x0 }
  - { offsetInCU: 0x1A53, offset: 0x231E6, size: 0x8, addend: 0x0, symName: __ZN3thcL16bishop_lookup_g4E, symObjAddr: 0x82120, symBinAddr: 0x1000A6E00, symSize: 0x0 }
  - { offsetInCU: 0x1A6E, offset: 0x23201, size: 0x8, addend: 0x0, symName: __ZN3thcL16bishop_lookup_h4E, symObjAddr: 0x82140, symBinAddr: 0x1000A6E20, symSize: 0x0 }
  - { offsetInCU: 0x1A89, offset: 0x2321C, size: 0x8, addend: 0x0, symName: __ZN3thcL16bishop_lookup_a3E, symObjAddr: 0x82160, symBinAddr: 0x1000A6E40, symSize: 0x0 }
  - { offsetInCU: 0x1AA4, offset: 0x23237, size: 0x8, addend: 0x0, symName: __ZN3thcL16bishop_lookup_b3E, symObjAddr: 0x82180, symBinAddr: 0x1000A6E60, symSize: 0x0 }
  - { offsetInCU: 0x1ABF, offset: 0x23252, size: 0x8, addend: 0x0, symName: __ZN3thcL16bishop_lookup_c3E, symObjAddr: 0x821A0, symBinAddr: 0x1000A6E80, symSize: 0x0 }
  - { offsetInCU: 0x1ADA, offset: 0x2326D, size: 0x8, addend: 0x0, symName: __ZN3thcL16bishop_lookup_d3E, symObjAddr: 0x821C0, symBinAddr: 0x1000A6EA0, symSize: 0x0 }
  - { offsetInCU: 0x1AF5, offset: 0x23288, size: 0x8, addend: 0x0, symName: __ZN3thcL16bishop_lookup_e3E, symObjAddr: 0x821E0, symBinAddr: 0x1000A6EC0, symSize: 0x0 }
  - { offsetInCU: 0x1B10, offset: 0x232A3, size: 0x8, addend: 0x0, symName: __ZN3thcL16bishop_lookup_f3E, symObjAddr: 0x82200, symBinAddr: 0x1000A6EE0, symSize: 0x0 }
  - { offsetInCU: 0x1B2B, offset: 0x232BE, size: 0x8, addend: 0x0, symName: __ZN3thcL16bishop_lookup_g3E, symObjAddr: 0x82220, symBinAddr: 0x1000A6F00, symSize: 0x0 }
  - { offsetInCU: 0x1B46, offset: 0x232D9, size: 0x8, addend: 0x0, symName: __ZN3thcL16bishop_lookup_h3E, symObjAddr: 0x82240, symBinAddr: 0x1000A6F20, symSize: 0x0 }
  - { offsetInCU: 0x1B61, offset: 0x232F4, size: 0x8, addend: 0x0, symName: __ZN3thcL16bishop_lookup_a2E, symObjAddr: 0x82260, symBinAddr: 0x1000A6F40, symSize: 0x0 }
  - { offsetInCU: 0x1B7C, offset: 0x2330F, size: 0x8, addend: 0x0, symName: __ZN3thcL16bishop_lookup_b2E, symObjAddr: 0x82280, symBinAddr: 0x1000A6F60, symSize: 0x0 }
  - { offsetInCU: 0x1B97, offset: 0x2332A, size: 0x8, addend: 0x0, symName: __ZN3thcL16bishop_lookup_c2E, symObjAddr: 0x822A0, symBinAddr: 0x1000A6F80, symSize: 0x0 }
  - { offsetInCU: 0x1BB2, offset: 0x23345, size: 0x8, addend: 0x0, symName: __ZN3thcL16bishop_lookup_d2E, symObjAddr: 0x822C0, symBinAddr: 0x1000A6FA0, symSize: 0x0 }
  - { offsetInCU: 0x1BCD, offset: 0x23360, size: 0x8, addend: 0x0, symName: __ZN3thcL16bishop_lookup_e2E, symObjAddr: 0x822E0, symBinAddr: 0x1000A6FC0, symSize: 0x0 }
  - { offsetInCU: 0x1BE8, offset: 0x2337B, size: 0x8, addend: 0x0, symName: __ZN3thcL16bishop_lookup_f2E, symObjAddr: 0x82300, symBinAddr: 0x1000A6FE0, symSize: 0x0 }
  - { offsetInCU: 0x1C03, offset: 0x23396, size: 0x8, addend: 0x0, symName: __ZN3thcL16bishop_lookup_g2E, symObjAddr: 0x82320, symBinAddr: 0x1000A7000, symSize: 0x0 }
  - { offsetInCU: 0x1C1E, offset: 0x233B1, size: 0x8, addend: 0x0, symName: __ZN3thcL16bishop_lookup_h2E, symObjAddr: 0x82340, symBinAddr: 0x1000A7020, symSize: 0x0 }
  - { offsetInCU: 0x1C39, offset: 0x233CC, size: 0x8, addend: 0x0, symName: __ZN3thcL16bishop_lookup_a1E, symObjAddr: 0x82360, symBinAddr: 0x1000A7040, symSize: 0x0 }
  - { offsetInCU: 0x1C54, offset: 0x233E7, size: 0x8, addend: 0x0, symName: __ZN3thcL16bishop_lookup_b1E, symObjAddr: 0x82380, symBinAddr: 0x1000A7060, symSize: 0x0 }
  - { offsetInCU: 0x1C6F, offset: 0x23402, size: 0x8, addend: 0x0, symName: __ZN3thcL16bishop_lookup_c1E, symObjAddr: 0x823A0, symBinAddr: 0x1000A7080, symSize: 0x0 }
  - { offsetInCU: 0x1C8A, offset: 0x2341D, size: 0x8, addend: 0x0, symName: __ZN3thcL16bishop_lookup_d1E, symObjAddr: 0x823C0, symBinAddr: 0x1000A70A0, symSize: 0x0 }
  - { offsetInCU: 0x1CA5, offset: 0x23438, size: 0x8, addend: 0x0, symName: __ZN3thcL16bishop_lookup_e1E, symObjAddr: 0x823E0, symBinAddr: 0x1000A70C0, symSize: 0x0 }
  - { offsetInCU: 0x1CC0, offset: 0x23453, size: 0x8, addend: 0x0, symName: __ZN3thcL16bishop_lookup_f1E, symObjAddr: 0x82400, symBinAddr: 0x1000A70E0, symSize: 0x0 }
  - { offsetInCU: 0x1CDB, offset: 0x2346E, size: 0x8, addend: 0x0, symName: __ZN3thcL16bishop_lookup_g1E, symObjAddr: 0x82420, symBinAddr: 0x1000A7100, symSize: 0x0 }
  - { offsetInCU: 0x1CF6, offset: 0x23489, size: 0x8, addend: 0x0, symName: __ZN3thcL16bishop_lookup_h1E, symObjAddr: 0x71620, symBinAddr: 0x1000A3FA0, symSize: 0x0 }
  - { offsetInCU: 0x1D11, offset: 0x234A4, size: 0x8, addend: 0x0, symName: __ZN3thcL16knight_lookup_a8E, symObjAddr: 0x82440, symBinAddr: 0x1000A7120, symSize: 0x0 }
  - { offsetInCU: 0x1D2C, offset: 0x234BF, size: 0x8, addend: 0x0, symName: __ZN3thcL16knight_lookup_b8E, symObjAddr: 0x82460, symBinAddr: 0x1000A7140, symSize: 0x0 }
  - { offsetInCU: 0x1D47, offset: 0x234DA, size: 0x8, addend: 0x0, symName: __ZN3thcL16knight_lookup_c8E, symObjAddr: 0x82480, symBinAddr: 0x1000A7160, symSize: 0x0 }
  - { offsetInCU: 0x1D62, offset: 0x234F5, size: 0x8, addend: 0x0, symName: __ZN3thcL16knight_lookup_d8E, symObjAddr: 0x824A0, symBinAddr: 0x1000A7180, symSize: 0x0 }
  - { offsetInCU: 0x1D7D, offset: 0x23510, size: 0x8, addend: 0x0, symName: __ZN3thcL16knight_lookup_e8E, symObjAddr: 0x824C0, symBinAddr: 0x1000A71A0, symSize: 0x0 }
  - { offsetInCU: 0x1D98, offset: 0x2352B, size: 0x8, addend: 0x0, symName: __ZN3thcL16knight_lookup_f8E, symObjAddr: 0x824E0, symBinAddr: 0x1000A71C0, symSize: 0x0 }
  - { offsetInCU: 0x1DB3, offset: 0x23546, size: 0x8, addend: 0x0, symName: __ZN3thcL16knight_lookup_g8E, symObjAddr: 0x82500, symBinAddr: 0x1000A71E0, symSize: 0x0 }
  - { offsetInCU: 0x1DCE, offset: 0x23561, size: 0x8, addend: 0x0, symName: __ZN3thcL16knight_lookup_h8E, symObjAddr: 0x82520, symBinAddr: 0x1000A7200, symSize: 0x0 }
  - { offsetInCU: 0x1DE9, offset: 0x2357C, size: 0x8, addend: 0x0, symName: __ZN3thcL16knight_lookup_a7E, symObjAddr: 0x82540, symBinAddr: 0x1000A7220, symSize: 0x0 }
  - { offsetInCU: 0x1E04, offset: 0x23597, size: 0x8, addend: 0x0, symName: __ZN3thcL16knight_lookup_b7E, symObjAddr: 0x82560, symBinAddr: 0x1000A7240, symSize: 0x0 }
  - { offsetInCU: 0x1E1F, offset: 0x235B2, size: 0x8, addend: 0x0, symName: __ZN3thcL16knight_lookup_c7E, symObjAddr: 0x82580, symBinAddr: 0x1000A7260, symSize: 0x0 }
  - { offsetInCU: 0x1E3A, offset: 0x235CD, size: 0x8, addend: 0x0, symName: __ZN3thcL16knight_lookup_d7E, symObjAddr: 0x825A0, symBinAddr: 0x1000A7280, symSize: 0x0 }
  - { offsetInCU: 0x1E55, offset: 0x235E8, size: 0x8, addend: 0x0, symName: __ZN3thcL16knight_lookup_e7E, symObjAddr: 0x825C0, symBinAddr: 0x1000A72A0, symSize: 0x0 }
  - { offsetInCU: 0x1E70, offset: 0x23603, size: 0x8, addend: 0x0, symName: __ZN3thcL16knight_lookup_f7E, symObjAddr: 0x825E0, symBinAddr: 0x1000A72C0, symSize: 0x0 }
  - { offsetInCU: 0x1E8B, offset: 0x2361E, size: 0x8, addend: 0x0, symName: __ZN3thcL16knight_lookup_g7E, symObjAddr: 0x82600, symBinAddr: 0x1000A72E0, symSize: 0x0 }
  - { offsetInCU: 0x1EA6, offset: 0x23639, size: 0x8, addend: 0x0, symName: __ZN3thcL16knight_lookup_h7E, symObjAddr: 0x82620, symBinAddr: 0x1000A7300, symSize: 0x0 }
  - { offsetInCU: 0x1EC1, offset: 0x23654, size: 0x8, addend: 0x0, symName: __ZN3thcL16knight_lookup_a6E, symObjAddr: 0x82640, symBinAddr: 0x1000A7320, symSize: 0x0 }
  - { offsetInCU: 0x1EDC, offset: 0x2366F, size: 0x8, addend: 0x0, symName: __ZN3thcL16knight_lookup_b6E, symObjAddr: 0x82660, symBinAddr: 0x1000A7340, symSize: 0x0 }
  - { offsetInCU: 0x1EF7, offset: 0x2368A, size: 0x8, addend: 0x0, symName: __ZN3thcL16knight_lookup_c6E, symObjAddr: 0x82680, symBinAddr: 0x1000A7360, symSize: 0x0 }
  - { offsetInCU: 0x1F12, offset: 0x236A5, size: 0x8, addend: 0x0, symName: __ZN3thcL16knight_lookup_d6E, symObjAddr: 0x826A0, symBinAddr: 0x1000A7380, symSize: 0x0 }
  - { offsetInCU: 0x1F2D, offset: 0x236C0, size: 0x8, addend: 0x0, symName: __ZN3thcL16knight_lookup_e6E, symObjAddr: 0x826C0, symBinAddr: 0x1000A73A0, symSize: 0x0 }
  - { offsetInCU: 0x1F48, offset: 0x236DB, size: 0x8, addend: 0x0, symName: __ZN3thcL16knight_lookup_f6E, symObjAddr: 0x826E0, symBinAddr: 0x1000A73C0, symSize: 0x0 }
  - { offsetInCU: 0x1F63, offset: 0x236F6, size: 0x8, addend: 0x0, symName: __ZN3thcL16knight_lookup_g6E, symObjAddr: 0x82700, symBinAddr: 0x1000A73E0, symSize: 0x0 }
  - { offsetInCU: 0x1F7E, offset: 0x23711, size: 0x8, addend: 0x0, symName: __ZN3thcL16knight_lookup_h6E, symObjAddr: 0x82720, symBinAddr: 0x1000A7400, symSize: 0x0 }
  - { offsetInCU: 0x1F99, offset: 0x2372C, size: 0x8, addend: 0x0, symName: __ZN3thcL16knight_lookup_a5E, symObjAddr: 0x82740, symBinAddr: 0x1000A7420, symSize: 0x0 }
  - { offsetInCU: 0x1FB4, offset: 0x23747, size: 0x8, addend: 0x0, symName: __ZN3thcL16knight_lookup_b5E, symObjAddr: 0x82760, symBinAddr: 0x1000A7440, symSize: 0x0 }
  - { offsetInCU: 0x1FCF, offset: 0x23762, size: 0x8, addend: 0x0, symName: __ZN3thcL16knight_lookup_c5E, symObjAddr: 0x82780, symBinAddr: 0x1000A7460, symSize: 0x0 }
  - { offsetInCU: 0x1FEA, offset: 0x2377D, size: 0x8, addend: 0x0, symName: __ZN3thcL16knight_lookup_d5E, symObjAddr: 0x827A0, symBinAddr: 0x1000A7480, symSize: 0x0 }
  - { offsetInCU: 0x2005, offset: 0x23798, size: 0x8, addend: 0x0, symName: __ZN3thcL16knight_lookup_e5E, symObjAddr: 0x827C0, symBinAddr: 0x1000A74A0, symSize: 0x0 }
  - { offsetInCU: 0x2020, offset: 0x237B3, size: 0x8, addend: 0x0, symName: __ZN3thcL16knight_lookup_f5E, symObjAddr: 0x827E0, symBinAddr: 0x1000A74C0, symSize: 0x0 }
  - { offsetInCU: 0x203B, offset: 0x237CE, size: 0x8, addend: 0x0, symName: __ZN3thcL16knight_lookup_g5E, symObjAddr: 0x82800, symBinAddr: 0x1000A74E0, symSize: 0x0 }
  - { offsetInCU: 0x2056, offset: 0x237E9, size: 0x8, addend: 0x0, symName: __ZN3thcL16knight_lookup_h5E, symObjAddr: 0x82820, symBinAddr: 0x1000A7500, symSize: 0x0 }
  - { offsetInCU: 0x2071, offset: 0x23804, size: 0x8, addend: 0x0, symName: __ZN3thcL16knight_lookup_a4E, symObjAddr: 0x82840, symBinAddr: 0x1000A7520, symSize: 0x0 }
  - { offsetInCU: 0x208C, offset: 0x2381F, size: 0x8, addend: 0x0, symName: __ZN3thcL16knight_lookup_b4E, symObjAddr: 0x82860, symBinAddr: 0x1000A7540, symSize: 0x0 }
  - { offsetInCU: 0x20A7, offset: 0x2383A, size: 0x8, addend: 0x0, symName: __ZN3thcL16knight_lookup_c4E, symObjAddr: 0x82880, symBinAddr: 0x1000A7560, symSize: 0x0 }
  - { offsetInCU: 0x20C2, offset: 0x23855, size: 0x8, addend: 0x0, symName: __ZN3thcL16knight_lookup_d4E, symObjAddr: 0x828A0, symBinAddr: 0x1000A7580, symSize: 0x0 }
  - { offsetInCU: 0x20DD, offset: 0x23870, size: 0x8, addend: 0x0, symName: __ZN3thcL16knight_lookup_e4E, symObjAddr: 0x828C0, symBinAddr: 0x1000A75A0, symSize: 0x0 }
  - { offsetInCU: 0x20F8, offset: 0x2388B, size: 0x8, addend: 0x0, symName: __ZN3thcL16knight_lookup_f4E, symObjAddr: 0x828E0, symBinAddr: 0x1000A75C0, symSize: 0x0 }
  - { offsetInCU: 0x2113, offset: 0x238A6, size: 0x8, addend: 0x0, symName: __ZN3thcL16knight_lookup_g4E, symObjAddr: 0x82900, symBinAddr: 0x1000A75E0, symSize: 0x0 }
  - { offsetInCU: 0x212E, offset: 0x238C1, size: 0x8, addend: 0x0, symName: __ZN3thcL16knight_lookup_h4E, symObjAddr: 0x82920, symBinAddr: 0x1000A7600, symSize: 0x0 }
  - { offsetInCU: 0x2149, offset: 0x238DC, size: 0x8, addend: 0x0, symName: __ZN3thcL16knight_lookup_a3E, symObjAddr: 0x82940, symBinAddr: 0x1000A7620, symSize: 0x0 }
  - { offsetInCU: 0x2164, offset: 0x238F7, size: 0x8, addend: 0x0, symName: __ZN3thcL16knight_lookup_b3E, symObjAddr: 0x82960, symBinAddr: 0x1000A7640, symSize: 0x0 }
  - { offsetInCU: 0x217F, offset: 0x23912, size: 0x8, addend: 0x0, symName: __ZN3thcL16knight_lookup_c3E, symObjAddr: 0x82980, symBinAddr: 0x1000A7660, symSize: 0x0 }
  - { offsetInCU: 0x219A, offset: 0x2392D, size: 0x8, addend: 0x0, symName: __ZN3thcL16knight_lookup_d3E, symObjAddr: 0x829A0, symBinAddr: 0x1000A7680, symSize: 0x0 }
  - { offsetInCU: 0x21B5, offset: 0x23948, size: 0x8, addend: 0x0, symName: __ZN3thcL16knight_lookup_e3E, symObjAddr: 0x829C0, symBinAddr: 0x1000A76A0, symSize: 0x0 }
  - { offsetInCU: 0x21D0, offset: 0x23963, size: 0x8, addend: 0x0, symName: __ZN3thcL16knight_lookup_f3E, symObjAddr: 0x829E0, symBinAddr: 0x1000A76C0, symSize: 0x0 }
  - { offsetInCU: 0x21EB, offset: 0x2397E, size: 0x8, addend: 0x0, symName: __ZN3thcL16knight_lookup_g3E, symObjAddr: 0x82A00, symBinAddr: 0x1000A76E0, symSize: 0x0 }
  - { offsetInCU: 0x2206, offset: 0x23999, size: 0x8, addend: 0x0, symName: __ZN3thcL16knight_lookup_h3E, symObjAddr: 0x82A20, symBinAddr: 0x1000A7700, symSize: 0x0 }
  - { offsetInCU: 0x2221, offset: 0x239B4, size: 0x8, addend: 0x0, symName: __ZN3thcL16knight_lookup_a2E, symObjAddr: 0x82A40, symBinAddr: 0x1000A7720, symSize: 0x0 }
  - { offsetInCU: 0x223C, offset: 0x239CF, size: 0x8, addend: 0x0, symName: __ZN3thcL16knight_lookup_b2E, symObjAddr: 0x82A60, symBinAddr: 0x1000A7740, symSize: 0x0 }
  - { offsetInCU: 0x2257, offset: 0x239EA, size: 0x8, addend: 0x0, symName: __ZN3thcL16knight_lookup_c2E, symObjAddr: 0x82A80, symBinAddr: 0x1000A7760, symSize: 0x0 }
  - { offsetInCU: 0x2272, offset: 0x23A05, size: 0x8, addend: 0x0, symName: __ZN3thcL16knight_lookup_d2E, symObjAddr: 0x82AA0, symBinAddr: 0x1000A7780, symSize: 0x0 }
  - { offsetInCU: 0x228D, offset: 0x23A20, size: 0x8, addend: 0x0, symName: __ZN3thcL16knight_lookup_e2E, symObjAddr: 0x82AC0, symBinAddr: 0x1000A77A0, symSize: 0x0 }
  - { offsetInCU: 0x22A8, offset: 0x23A3B, size: 0x8, addend: 0x0, symName: __ZN3thcL16knight_lookup_f2E, symObjAddr: 0x82AE0, symBinAddr: 0x1000A77C0, symSize: 0x0 }
  - { offsetInCU: 0x22C3, offset: 0x23A56, size: 0x8, addend: 0x0, symName: __ZN3thcL16knight_lookup_g2E, symObjAddr: 0x82B00, symBinAddr: 0x1000A77E0, symSize: 0x0 }
  - { offsetInCU: 0x22DE, offset: 0x23A71, size: 0x8, addend: 0x0, symName: __ZN3thcL16knight_lookup_h2E, symObjAddr: 0x82B20, symBinAddr: 0x1000A7800, symSize: 0x0 }
  - { offsetInCU: 0x22F9, offset: 0x23A8C, size: 0x8, addend: 0x0, symName: __ZN3thcL16knight_lookup_a1E, symObjAddr: 0x82B40, symBinAddr: 0x1000A7820, symSize: 0x0 }
  - { offsetInCU: 0x2314, offset: 0x23AA7, size: 0x8, addend: 0x0, symName: __ZN3thcL16knight_lookup_b1E, symObjAddr: 0x82B60, symBinAddr: 0x1000A7840, symSize: 0x0 }
  - { offsetInCU: 0x232F, offset: 0x23AC2, size: 0x8, addend: 0x0, symName: __ZN3thcL16knight_lookup_c1E, symObjAddr: 0x82B80, symBinAddr: 0x1000A7860, symSize: 0x0 }
  - { offsetInCU: 0x234A, offset: 0x23ADD, size: 0x8, addend: 0x0, symName: __ZN3thcL16knight_lookup_d1E, symObjAddr: 0x82BA0, symBinAddr: 0x1000A7880, symSize: 0x0 }
  - { offsetInCU: 0x2365, offset: 0x23AF8, size: 0x8, addend: 0x0, symName: __ZN3thcL16knight_lookup_e1E, symObjAddr: 0x82BC0, symBinAddr: 0x1000A78A0, symSize: 0x0 }
  - { offsetInCU: 0x2380, offset: 0x23B13, size: 0x8, addend: 0x0, symName: __ZN3thcL16knight_lookup_f1E, symObjAddr: 0x82BE0, symBinAddr: 0x1000A78C0, symSize: 0x0 }
  - { offsetInCU: 0x239B, offset: 0x23B2E, size: 0x8, addend: 0x0, symName: __ZN3thcL16knight_lookup_g1E, symObjAddr: 0x82C00, symBinAddr: 0x1000A78E0, symSize: 0x0 }
  - { offsetInCU: 0x23B6, offset: 0x23B49, size: 0x8, addend: 0x0, symName: __ZN3thcL16knight_lookup_h1E, symObjAddr: 0x82C20, symBinAddr: 0x1000A7900, symSize: 0x0 }
  - { offsetInCU: 0x23D1, offset: 0x23B64, size: 0x8, addend: 0x0, symName: __ZN3thcL14king_lookup_a8E, symObjAddr: 0x82C40, symBinAddr: 0x1000A7920, symSize: 0x0 }
  - { offsetInCU: 0x23EC, offset: 0x23B7F, size: 0x8, addend: 0x0, symName: __ZN3thcL14king_lookup_b8E, symObjAddr: 0x82C60, symBinAddr: 0x1000A7940, symSize: 0x0 }
  - { offsetInCU: 0x2407, offset: 0x23B9A, size: 0x8, addend: 0x0, symName: __ZN3thcL14king_lookup_c8E, symObjAddr: 0x82C80, symBinAddr: 0x1000A7960, symSize: 0x0 }
  - { offsetInCU: 0x2422, offset: 0x23BB5, size: 0x8, addend: 0x0, symName: __ZN3thcL14king_lookup_d8E, symObjAddr: 0x82CA0, symBinAddr: 0x1000A7980, symSize: 0x0 }
  - { offsetInCU: 0x243D, offset: 0x23BD0, size: 0x8, addend: 0x0, symName: __ZN3thcL14king_lookup_e8E, symObjAddr: 0x82CC0, symBinAddr: 0x1000A79A0, symSize: 0x0 }
  - { offsetInCU: 0x2458, offset: 0x23BEB, size: 0x8, addend: 0x0, symName: __ZN3thcL14king_lookup_f8E, symObjAddr: 0x82CE0, symBinAddr: 0x1000A79C0, symSize: 0x0 }
  - { offsetInCU: 0x2473, offset: 0x23C06, size: 0x8, addend: 0x0, symName: __ZN3thcL14king_lookup_g8E, symObjAddr: 0x82D00, symBinAddr: 0x1000A79E0, symSize: 0x0 }
  - { offsetInCU: 0x248E, offset: 0x23C21, size: 0x8, addend: 0x0, symName: __ZN3thcL14king_lookup_h8E, symObjAddr: 0x82D20, symBinAddr: 0x1000A7A00, symSize: 0x0 }
  - { offsetInCU: 0x24A9, offset: 0x23C3C, size: 0x8, addend: 0x0, symName: __ZN3thcL14king_lookup_a7E, symObjAddr: 0x71640, symBinAddr: 0x1000A3FC0, symSize: 0x0 }
  - { offsetInCU: 0x24C4, offset: 0x23C57, size: 0x8, addend: 0x0, symName: __ZN3thcL14king_lookup_b7E, symObjAddr: 0x82D40, symBinAddr: 0x1000A7A20, symSize: 0x0 }
  - { offsetInCU: 0x24DF, offset: 0x23C72, size: 0x8, addend: 0x0, symName: __ZN3thcL14king_lookup_c7E, symObjAddr: 0x82D60, symBinAddr: 0x1000A7A40, symSize: 0x0 }
  - { offsetInCU: 0x24FA, offset: 0x23C8D, size: 0x8, addend: 0x0, symName: __ZN3thcL14king_lookup_d7E, symObjAddr: 0x82D80, symBinAddr: 0x1000A7A60, symSize: 0x0 }
  - { offsetInCU: 0x2515, offset: 0x23CA8, size: 0x8, addend: 0x0, symName: __ZN3thcL14king_lookup_e7E, symObjAddr: 0x82DA0, symBinAddr: 0x1000A7A80, symSize: 0x0 }
  - { offsetInCU: 0x2530, offset: 0x23CC3, size: 0x8, addend: 0x0, symName: __ZN3thcL14king_lookup_f7E, symObjAddr: 0x82DC0, symBinAddr: 0x1000A7AA0, symSize: 0x0 }
  - { offsetInCU: 0x254B, offset: 0x23CDE, size: 0x8, addend: 0x0, symName: __ZN3thcL14king_lookup_g7E, symObjAddr: 0x82DE0, symBinAddr: 0x1000A7AC0, symSize: 0x0 }
  - { offsetInCU: 0x2566, offset: 0x23CF9, size: 0x8, addend: 0x0, symName: __ZN3thcL14king_lookup_h7E, symObjAddr: 0x82E00, symBinAddr: 0x1000A7AE0, symSize: 0x0 }
  - { offsetInCU: 0x2581, offset: 0x23D14, size: 0x8, addend: 0x0, symName: __ZN3thcL14king_lookup_a6E, symObjAddr: 0x82E20, symBinAddr: 0x1000A7B00, symSize: 0x0 }
  - { offsetInCU: 0x259C, offset: 0x23D2F, size: 0x8, addend: 0x0, symName: __ZN3thcL14king_lookup_b6E, symObjAddr: 0x82E40, symBinAddr: 0x1000A7B20, symSize: 0x0 }
  - { offsetInCU: 0x25B7, offset: 0x23D4A, size: 0x8, addend: 0x0, symName: __ZN3thcL14king_lookup_c6E, symObjAddr: 0x82E60, symBinAddr: 0x1000A7B40, symSize: 0x0 }
  - { offsetInCU: 0x25D2, offset: 0x23D65, size: 0x8, addend: 0x0, symName: __ZN3thcL14king_lookup_d6E, symObjAddr: 0x82E80, symBinAddr: 0x1000A7B60, symSize: 0x0 }
  - { offsetInCU: 0x25ED, offset: 0x23D80, size: 0x8, addend: 0x0, symName: __ZN3thcL14king_lookup_e6E, symObjAddr: 0x82EA0, symBinAddr: 0x1000A7B80, symSize: 0x0 }
  - { offsetInCU: 0x2608, offset: 0x23D9B, size: 0x8, addend: 0x0, symName: __ZN3thcL14king_lookup_f6E, symObjAddr: 0x82EC0, symBinAddr: 0x1000A7BA0, symSize: 0x0 }
  - { offsetInCU: 0x2623, offset: 0x23DB6, size: 0x8, addend: 0x0, symName: __ZN3thcL14king_lookup_g6E, symObjAddr: 0x82EE0, symBinAddr: 0x1000A7BC0, symSize: 0x0 }
  - { offsetInCU: 0x263E, offset: 0x23DD1, size: 0x8, addend: 0x0, symName: __ZN3thcL14king_lookup_h6E, symObjAddr: 0x82F00, symBinAddr: 0x1000A7BE0, symSize: 0x0 }
  - { offsetInCU: 0x2659, offset: 0x23DEC, size: 0x8, addend: 0x0, symName: __ZN3thcL14king_lookup_a5E, symObjAddr: 0x82F20, symBinAddr: 0x1000A7C00, symSize: 0x0 }
  - { offsetInCU: 0x2674, offset: 0x23E07, size: 0x8, addend: 0x0, symName: __ZN3thcL14king_lookup_b5E, symObjAddr: 0x82F40, symBinAddr: 0x1000A7C20, symSize: 0x0 }
  - { offsetInCU: 0x268F, offset: 0x23E22, size: 0x8, addend: 0x0, symName: __ZN3thcL14king_lookup_c5E, symObjAddr: 0x82F60, symBinAddr: 0x1000A7C40, symSize: 0x0 }
  - { offsetInCU: 0x26AA, offset: 0x23E3D, size: 0x8, addend: 0x0, symName: __ZN3thcL14king_lookup_d5E, symObjAddr: 0x82F80, symBinAddr: 0x1000A7C60, symSize: 0x0 }
  - { offsetInCU: 0x26C5, offset: 0x23E58, size: 0x8, addend: 0x0, symName: __ZN3thcL14king_lookup_e5E, symObjAddr: 0x82FA0, symBinAddr: 0x1000A7C80, symSize: 0x0 }
  - { offsetInCU: 0x26E0, offset: 0x23E73, size: 0x8, addend: 0x0, symName: __ZN3thcL14king_lookup_f5E, symObjAddr: 0x82FC0, symBinAddr: 0x1000A7CA0, symSize: 0x0 }
  - { offsetInCU: 0x26FB, offset: 0x23E8E, size: 0x8, addend: 0x0, symName: __ZN3thcL14king_lookup_g5E, symObjAddr: 0x82FE0, symBinAddr: 0x1000A7CC0, symSize: 0x0 }
  - { offsetInCU: 0x2716, offset: 0x23EA9, size: 0x8, addend: 0x0, symName: __ZN3thcL14king_lookup_h5E, symObjAddr: 0x83000, symBinAddr: 0x1000A7CE0, symSize: 0x0 }
  - { offsetInCU: 0x2731, offset: 0x23EC4, size: 0x8, addend: 0x0, symName: __ZN3thcL14king_lookup_a4E, symObjAddr: 0x83020, symBinAddr: 0x1000A7D00, symSize: 0x0 }
  - { offsetInCU: 0x274C, offset: 0x23EDF, size: 0x8, addend: 0x0, symName: __ZN3thcL14king_lookup_b4E, symObjAddr: 0x83040, symBinAddr: 0x1000A7D20, symSize: 0x0 }
  - { offsetInCU: 0x2767, offset: 0x23EFA, size: 0x8, addend: 0x0, symName: __ZN3thcL14king_lookup_c4E, symObjAddr: 0x83060, symBinAddr: 0x1000A7D40, symSize: 0x0 }
  - { offsetInCU: 0x2782, offset: 0x23F15, size: 0x8, addend: 0x0, symName: __ZN3thcL14king_lookup_d4E, symObjAddr: 0x83080, symBinAddr: 0x1000A7D60, symSize: 0x0 }
  - { offsetInCU: 0x279D, offset: 0x23F30, size: 0x8, addend: 0x0, symName: __ZN3thcL14king_lookup_e4E, symObjAddr: 0x830A0, symBinAddr: 0x1000A7D80, symSize: 0x0 }
  - { offsetInCU: 0x27B8, offset: 0x23F4B, size: 0x8, addend: 0x0, symName: __ZN3thcL14king_lookup_f4E, symObjAddr: 0x830C0, symBinAddr: 0x1000A7DA0, symSize: 0x0 }
  - { offsetInCU: 0x27D3, offset: 0x23F66, size: 0x8, addend: 0x0, symName: __ZN3thcL14king_lookup_g4E, symObjAddr: 0x830E0, symBinAddr: 0x1000A7DC0, symSize: 0x0 }
  - { offsetInCU: 0x27EE, offset: 0x23F81, size: 0x8, addend: 0x0, symName: __ZN3thcL14king_lookup_h4E, symObjAddr: 0x83100, symBinAddr: 0x1000A7DE0, symSize: 0x0 }
  - { offsetInCU: 0x2809, offset: 0x23F9C, size: 0x8, addend: 0x0, symName: __ZN3thcL14king_lookup_a3E, symObjAddr: 0x83120, symBinAddr: 0x1000A7E00, symSize: 0x0 }
  - { offsetInCU: 0x2824, offset: 0x23FB7, size: 0x8, addend: 0x0, symName: __ZN3thcL14king_lookup_b3E, symObjAddr: 0x83140, symBinAddr: 0x1000A7E20, symSize: 0x0 }
  - { offsetInCU: 0x283F, offset: 0x23FD2, size: 0x8, addend: 0x0, symName: __ZN3thcL14king_lookup_c3E, symObjAddr: 0x83160, symBinAddr: 0x1000A7E40, symSize: 0x0 }
  - { offsetInCU: 0x285A, offset: 0x23FED, size: 0x8, addend: 0x0, symName: __ZN3thcL14king_lookup_d3E, symObjAddr: 0x83180, symBinAddr: 0x1000A7E60, symSize: 0x0 }
  - { offsetInCU: 0x2875, offset: 0x24008, size: 0x8, addend: 0x0, symName: __ZN3thcL14king_lookup_e3E, symObjAddr: 0x831A0, symBinAddr: 0x1000A7E80, symSize: 0x0 }
  - { offsetInCU: 0x2890, offset: 0x24023, size: 0x8, addend: 0x0, symName: __ZN3thcL14king_lookup_f3E, symObjAddr: 0x831C0, symBinAddr: 0x1000A7EA0, symSize: 0x0 }
  - { offsetInCU: 0x28AB, offset: 0x2403E, size: 0x8, addend: 0x0, symName: __ZN3thcL14king_lookup_g3E, symObjAddr: 0x831E0, symBinAddr: 0x1000A7EC0, symSize: 0x0 }
  - { offsetInCU: 0x28C6, offset: 0x24059, size: 0x8, addend: 0x0, symName: __ZN3thcL14king_lookup_h3E, symObjAddr: 0x83200, symBinAddr: 0x1000A7EE0, symSize: 0x0 }
  - { offsetInCU: 0x28E1, offset: 0x24074, size: 0x8, addend: 0x0, symName: __ZN3thcL14king_lookup_a2E, symObjAddr: 0x83220, symBinAddr: 0x1000A7F00, symSize: 0x0 }
  - { offsetInCU: 0x28FC, offset: 0x2408F, size: 0x8, addend: 0x0, symName: __ZN3thcL14king_lookup_b2E, symObjAddr: 0x83240, symBinAddr: 0x1000A7F20, symSize: 0x0 }
  - { offsetInCU: 0x2917, offset: 0x240AA, size: 0x8, addend: 0x0, symName: __ZN3thcL14king_lookup_c2E, symObjAddr: 0x83260, symBinAddr: 0x1000A7F40, symSize: 0x0 }
  - { offsetInCU: 0x2932, offset: 0x240C5, size: 0x8, addend: 0x0, symName: __ZN3thcL14king_lookup_d2E, symObjAddr: 0x83280, symBinAddr: 0x1000A7F60, symSize: 0x0 }
  - { offsetInCU: 0x294D, offset: 0x240E0, size: 0x8, addend: 0x0, symName: __ZN3thcL14king_lookup_e2E, symObjAddr: 0x832A0, symBinAddr: 0x1000A7F80, symSize: 0x0 }
  - { offsetInCU: 0x2968, offset: 0x240FB, size: 0x8, addend: 0x0, symName: __ZN3thcL14king_lookup_f2E, symObjAddr: 0x832C0, symBinAddr: 0x1000A7FA0, symSize: 0x0 }
  - { offsetInCU: 0x2983, offset: 0x24116, size: 0x8, addend: 0x0, symName: __ZN3thcL14king_lookup_g2E, symObjAddr: 0x832E0, symBinAddr: 0x1000A7FC0, symSize: 0x0 }
  - { offsetInCU: 0x299E, offset: 0x24131, size: 0x8, addend: 0x0, symName: __ZN3thcL14king_lookup_h2E, symObjAddr: 0x83300, symBinAddr: 0x1000A7FE0, symSize: 0x0 }
  - { offsetInCU: 0x29B9, offset: 0x2414C, size: 0x8, addend: 0x0, symName: __ZN3thcL14king_lookup_a1E, symObjAddr: 0x83320, symBinAddr: 0x1000A8000, symSize: 0x0 }
  - { offsetInCU: 0x29D4, offset: 0x24167, size: 0x8, addend: 0x0, symName: __ZN3thcL14king_lookup_b1E, symObjAddr: 0x83340, symBinAddr: 0x1000A8020, symSize: 0x0 }
  - { offsetInCU: 0x29EF, offset: 0x24182, size: 0x8, addend: 0x0, symName: __ZN3thcL14king_lookup_c1E, symObjAddr: 0x83360, symBinAddr: 0x1000A8040, symSize: 0x0 }
  - { offsetInCU: 0x2A0A, offset: 0x2419D, size: 0x8, addend: 0x0, symName: __ZN3thcL14king_lookup_d1E, symObjAddr: 0x83380, symBinAddr: 0x1000A8060, symSize: 0x0 }
  - { offsetInCU: 0x2A25, offset: 0x241B8, size: 0x8, addend: 0x0, symName: __ZN3thcL14king_lookup_e1E, symObjAddr: 0x833A0, symBinAddr: 0x1000A8080, symSize: 0x0 }
  - { offsetInCU: 0x2A40, offset: 0x241D3, size: 0x8, addend: 0x0, symName: __ZN3thcL14king_lookup_f1E, symObjAddr: 0x833C0, symBinAddr: 0x1000A80A0, symSize: 0x0 }
  - { offsetInCU: 0x2A5B, offset: 0x241EE, size: 0x8, addend: 0x0, symName: __ZN3thcL14king_lookup_g1E, symObjAddr: 0x833E0, symBinAddr: 0x1000A80C0, symSize: 0x0 }
  - { offsetInCU: 0x2A76, offset: 0x24209, size: 0x8, addend: 0x0, symName: __ZN3thcL14king_lookup_h1E, symObjAddr: 0x83400, symBinAddr: 0x1000A80E0, symSize: 0x0 }
  - { offsetInCU: 0x2A91, offset: 0x24224, size: 0x8, addend: 0x0, symName: __ZN3thcL20pawn_white_lookup_a8E, symObjAddr: 0x83420, symBinAddr: 0x1000A8100, symSize: 0x0 }
  - { offsetInCU: 0x2AAC, offset: 0x2423F, size: 0x8, addend: 0x0, symName: __ZN3thcL20pawn_white_lookup_b8E, symObjAddr: 0x83440, symBinAddr: 0x1000A8120, symSize: 0x0 }
  - { offsetInCU: 0x2AC7, offset: 0x2425A, size: 0x8, addend: 0x0, symName: __ZN3thcL20pawn_white_lookup_c8E, symObjAddr: 0x83460, symBinAddr: 0x1000A8140, symSize: 0x0 }
  - { offsetInCU: 0x2AE2, offset: 0x24275, size: 0x8, addend: 0x0, symName: __ZN3thcL20pawn_white_lookup_d8E, symObjAddr: 0x83480, symBinAddr: 0x1000A8160, symSize: 0x0 }
  - { offsetInCU: 0x2AFD, offset: 0x24290, size: 0x8, addend: 0x0, symName: __ZN3thcL20pawn_white_lookup_e8E, symObjAddr: 0x834A0, symBinAddr: 0x1000A8180, symSize: 0x0 }
  - { offsetInCU: 0x2B18, offset: 0x242AB, size: 0x8, addend: 0x0, symName: __ZN3thcL20pawn_white_lookup_f8E, symObjAddr: 0x834C0, symBinAddr: 0x1000A81A0, symSize: 0x0 }
  - { offsetInCU: 0x2B33, offset: 0x242C6, size: 0x8, addend: 0x0, symName: __ZN3thcL20pawn_white_lookup_g8E, symObjAddr: 0x834E0, symBinAddr: 0x1000A81C0, symSize: 0x0 }
  - { offsetInCU: 0x2B4E, offset: 0x242E1, size: 0x8, addend: 0x0, symName: __ZN3thcL20pawn_white_lookup_h8E, symObjAddr: 0x83500, symBinAddr: 0x1000A81E0, symSize: 0x0 }
  - { offsetInCU: 0x2B69, offset: 0x242FC, size: 0x8, addend: 0x0, symName: __ZN3thcL20pawn_white_lookup_a7E, symObjAddr: 0x71660, symBinAddr: 0x1000A3FE0, symSize: 0x0 }
  - { offsetInCU: 0x2B84, offset: 0x24317, size: 0x8, addend: 0x0, symName: __ZN3thcL20pawn_white_lookup_b7E, symObjAddr: 0x83520, symBinAddr: 0x1000A8200, symSize: 0x0 }
  - { offsetInCU: 0x2B9F, offset: 0x24332, size: 0x8, addend: 0x0, symName: __ZN3thcL20pawn_white_lookup_c7E, symObjAddr: 0x83540, symBinAddr: 0x1000A8220, symSize: 0x0 }
  - { offsetInCU: 0x2BBA, offset: 0x2434D, size: 0x8, addend: 0x0, symName: __ZN3thcL20pawn_white_lookup_d7E, symObjAddr: 0x83560, symBinAddr: 0x1000A8240, symSize: 0x0 }
  - { offsetInCU: 0x2BD5, offset: 0x24368, size: 0x8, addend: 0x0, symName: __ZN3thcL20pawn_white_lookup_e7E, symObjAddr: 0x83580, symBinAddr: 0x1000A8260, symSize: 0x0 }
  - { offsetInCU: 0x2BF0, offset: 0x24383, size: 0x8, addend: 0x0, symName: __ZN3thcL20pawn_white_lookup_f7E, symObjAddr: 0x835A0, symBinAddr: 0x1000A8280, symSize: 0x0 }
  - { offsetInCU: 0x2C0B, offset: 0x2439E, size: 0x8, addend: 0x0, symName: __ZN3thcL20pawn_white_lookup_g7E, symObjAddr: 0x835C0, symBinAddr: 0x1000A82A0, symSize: 0x0 }
  - { offsetInCU: 0x2C26, offset: 0x243B9, size: 0x8, addend: 0x0, symName: __ZN3thcL20pawn_white_lookup_h7E, symObjAddr: 0x835E0, symBinAddr: 0x1000A82C0, symSize: 0x0 }
  - { offsetInCU: 0x2C41, offset: 0x243D4, size: 0x8, addend: 0x0, symName: __ZN3thcL20pawn_white_lookup_a6E, symObjAddr: 0x83600, symBinAddr: 0x1000A82E0, symSize: 0x0 }
  - { offsetInCU: 0x2C5C, offset: 0x243EF, size: 0x8, addend: 0x0, symName: __ZN3thcL20pawn_white_lookup_b6E, symObjAddr: 0x83620, symBinAddr: 0x1000A8300, symSize: 0x0 }
  - { offsetInCU: 0x2C77, offset: 0x2440A, size: 0x8, addend: 0x0, symName: __ZN3thcL20pawn_white_lookup_c6E, symObjAddr: 0x83640, symBinAddr: 0x1000A8320, symSize: 0x0 }
  - { offsetInCU: 0x2C92, offset: 0x24425, size: 0x8, addend: 0x0, symName: __ZN3thcL20pawn_white_lookup_d6E, symObjAddr: 0x83660, symBinAddr: 0x1000A8340, symSize: 0x0 }
  - { offsetInCU: 0x2CAD, offset: 0x24440, size: 0x8, addend: 0x0, symName: __ZN3thcL20pawn_white_lookup_e6E, symObjAddr: 0x83680, symBinAddr: 0x1000A8360, symSize: 0x0 }
  - { offsetInCU: 0x2CC8, offset: 0x2445B, size: 0x8, addend: 0x0, symName: __ZN3thcL20pawn_white_lookup_f6E, symObjAddr: 0x836A0, symBinAddr: 0x1000A8380, symSize: 0x0 }
  - { offsetInCU: 0x2CE3, offset: 0x24476, size: 0x8, addend: 0x0, symName: __ZN3thcL20pawn_white_lookup_g6E, symObjAddr: 0x836C0, symBinAddr: 0x1000A83A0, symSize: 0x0 }
  - { offsetInCU: 0x2CFE, offset: 0x24491, size: 0x8, addend: 0x0, symName: __ZN3thcL20pawn_white_lookup_h6E, symObjAddr: 0x836E0, symBinAddr: 0x1000A83C0, symSize: 0x0 }
  - { offsetInCU: 0x2D19, offset: 0x244AC, size: 0x8, addend: 0x0, symName: __ZN3thcL20pawn_white_lookup_a5E, symObjAddr: 0x83700, symBinAddr: 0x1000A83E0, symSize: 0x0 }
  - { offsetInCU: 0x2D34, offset: 0x244C7, size: 0x8, addend: 0x0, symName: __ZN3thcL20pawn_white_lookup_b5E, symObjAddr: 0x83720, symBinAddr: 0x1000A8400, symSize: 0x0 }
  - { offsetInCU: 0x2D4F, offset: 0x244E2, size: 0x8, addend: 0x0, symName: __ZN3thcL20pawn_white_lookup_c5E, symObjAddr: 0x83740, symBinAddr: 0x1000A8420, symSize: 0x0 }
  - { offsetInCU: 0x2D6A, offset: 0x244FD, size: 0x8, addend: 0x0, symName: __ZN3thcL20pawn_white_lookup_d5E, symObjAddr: 0x83760, symBinAddr: 0x1000A8440, symSize: 0x0 }
  - { offsetInCU: 0x2D85, offset: 0x24518, size: 0x8, addend: 0x0, symName: __ZN3thcL20pawn_white_lookup_e5E, symObjAddr: 0x83780, symBinAddr: 0x1000A8460, symSize: 0x0 }
  - { offsetInCU: 0x2DA0, offset: 0x24533, size: 0x8, addend: 0x0, symName: __ZN3thcL20pawn_white_lookup_f5E, symObjAddr: 0x837A0, symBinAddr: 0x1000A8480, symSize: 0x0 }
  - { offsetInCU: 0x2DBB, offset: 0x2454E, size: 0x8, addend: 0x0, symName: __ZN3thcL20pawn_white_lookup_g5E, symObjAddr: 0x837C0, symBinAddr: 0x1000A84A0, symSize: 0x0 }
  - { offsetInCU: 0x2DD6, offset: 0x24569, size: 0x8, addend: 0x0, symName: __ZN3thcL20pawn_white_lookup_h5E, symObjAddr: 0x837E0, symBinAddr: 0x1000A84C0, symSize: 0x0 }
  - { offsetInCU: 0x2DF1, offset: 0x24584, size: 0x8, addend: 0x0, symName: __ZN3thcL20pawn_white_lookup_a4E, symObjAddr: 0x83800, symBinAddr: 0x1000A84E0, symSize: 0x0 }
  - { offsetInCU: 0x2E0C, offset: 0x2459F, size: 0x8, addend: 0x0, symName: __ZN3thcL20pawn_white_lookup_b4E, symObjAddr: 0x83820, symBinAddr: 0x1000A8500, symSize: 0x0 }
  - { offsetInCU: 0x2E27, offset: 0x245BA, size: 0x8, addend: 0x0, symName: __ZN3thcL20pawn_white_lookup_c4E, symObjAddr: 0x83840, symBinAddr: 0x1000A8520, symSize: 0x0 }
  - { offsetInCU: 0x2E42, offset: 0x245D5, size: 0x8, addend: 0x0, symName: __ZN3thcL20pawn_white_lookup_d4E, symObjAddr: 0x83860, symBinAddr: 0x1000A8540, symSize: 0x0 }
  - { offsetInCU: 0x2E5D, offset: 0x245F0, size: 0x8, addend: 0x0, symName: __ZN3thcL20pawn_white_lookup_e4E, symObjAddr: 0x83880, symBinAddr: 0x1000A8560, symSize: 0x0 }
  - { offsetInCU: 0x2E78, offset: 0x2460B, size: 0x8, addend: 0x0, symName: __ZN3thcL20pawn_white_lookup_f4E, symObjAddr: 0x838A0, symBinAddr: 0x1000A8580, symSize: 0x0 }
  - { offsetInCU: 0x2E93, offset: 0x24626, size: 0x8, addend: 0x0, symName: __ZN3thcL20pawn_white_lookup_g4E, symObjAddr: 0x838C0, symBinAddr: 0x1000A85A0, symSize: 0x0 }
  - { offsetInCU: 0x2EAE, offset: 0x24641, size: 0x8, addend: 0x0, symName: __ZN3thcL20pawn_white_lookup_h4E, symObjAddr: 0x838E0, symBinAddr: 0x1000A85C0, symSize: 0x0 }
  - { offsetInCU: 0x2EC9, offset: 0x2465C, size: 0x8, addend: 0x0, symName: __ZN3thcL20pawn_white_lookup_a3E, symObjAddr: 0x83900, symBinAddr: 0x1000A85E0, symSize: 0x0 }
  - { offsetInCU: 0x2EE4, offset: 0x24677, size: 0x8, addend: 0x0, symName: __ZN3thcL20pawn_white_lookup_b3E, symObjAddr: 0x83920, symBinAddr: 0x1000A8600, symSize: 0x0 }
  - { offsetInCU: 0x2EFF, offset: 0x24692, size: 0x8, addend: 0x0, symName: __ZN3thcL20pawn_white_lookup_c3E, symObjAddr: 0x83940, symBinAddr: 0x1000A8620, symSize: 0x0 }
  - { offsetInCU: 0x2F1A, offset: 0x246AD, size: 0x8, addend: 0x0, symName: __ZN3thcL20pawn_white_lookup_d3E, symObjAddr: 0x83960, symBinAddr: 0x1000A8640, symSize: 0x0 }
  - { offsetInCU: 0x2F35, offset: 0x246C8, size: 0x8, addend: 0x0, symName: __ZN3thcL20pawn_white_lookup_e3E, symObjAddr: 0x83980, symBinAddr: 0x1000A8660, symSize: 0x0 }
  - { offsetInCU: 0x2F50, offset: 0x246E3, size: 0x8, addend: 0x0, symName: __ZN3thcL20pawn_white_lookup_f3E, symObjAddr: 0x839A0, symBinAddr: 0x1000A8680, symSize: 0x0 }
  - { offsetInCU: 0x2F6B, offset: 0x246FE, size: 0x8, addend: 0x0, symName: __ZN3thcL20pawn_white_lookup_g3E, symObjAddr: 0x839C0, symBinAddr: 0x1000A86A0, symSize: 0x0 }
  - { offsetInCU: 0x2F86, offset: 0x24719, size: 0x8, addend: 0x0, symName: __ZN3thcL20pawn_white_lookup_h3E, symObjAddr: 0x839E0, symBinAddr: 0x1000A86C0, symSize: 0x0 }
  - { offsetInCU: 0x2FA1, offset: 0x24734, size: 0x8, addend: 0x0, symName: __ZN3thcL20pawn_white_lookup_a2E, symObjAddr: 0x83A00, symBinAddr: 0x1000A86E0, symSize: 0x0 }
  - { offsetInCU: 0x2FBC, offset: 0x2474F, size: 0x8, addend: 0x0, symName: __ZN3thcL20pawn_white_lookup_b2E, symObjAddr: 0x83A20, symBinAddr: 0x1000A8700, symSize: 0x0 }
  - { offsetInCU: 0x2FD7, offset: 0x2476A, size: 0x8, addend: 0x0, symName: __ZN3thcL20pawn_white_lookup_c2E, symObjAddr: 0x83A40, symBinAddr: 0x1000A8720, symSize: 0x0 }
  - { offsetInCU: 0x2FF2, offset: 0x24785, size: 0x8, addend: 0x0, symName: __ZN3thcL20pawn_white_lookup_d2E, symObjAddr: 0x83A60, symBinAddr: 0x1000A8740, symSize: 0x0 }
  - { offsetInCU: 0x300D, offset: 0x247A0, size: 0x8, addend: 0x0, symName: __ZN3thcL20pawn_white_lookup_e2E, symObjAddr: 0x83A80, symBinAddr: 0x1000A8760, symSize: 0x0 }
  - { offsetInCU: 0x3028, offset: 0x247BB, size: 0x8, addend: 0x0, symName: __ZN3thcL20pawn_white_lookup_f2E, symObjAddr: 0x83AA0, symBinAddr: 0x1000A8780, symSize: 0x0 }
  - { offsetInCU: 0x3043, offset: 0x247D6, size: 0x8, addend: 0x0, symName: __ZN3thcL20pawn_white_lookup_g2E, symObjAddr: 0x83AC0, symBinAddr: 0x1000A87A0, symSize: 0x0 }
  - { offsetInCU: 0x305E, offset: 0x247F1, size: 0x8, addend: 0x0, symName: __ZN3thcL20pawn_white_lookup_h2E, symObjAddr: 0x83AE0, symBinAddr: 0x1000A87C0, symSize: 0x0 }
  - { offsetInCU: 0x3079, offset: 0x2480C, size: 0x8, addend: 0x0, symName: __ZN3thcL20pawn_white_lookup_a1E, symObjAddr: 0x83B00, symBinAddr: 0x1000A87E0, symSize: 0x0 }
  - { offsetInCU: 0x3094, offset: 0x24827, size: 0x8, addend: 0x0, symName: __ZN3thcL20pawn_white_lookup_b1E, symObjAddr: 0x83B20, symBinAddr: 0x1000A8800, symSize: 0x0 }
  - { offsetInCU: 0x30AF, offset: 0x24842, size: 0x8, addend: 0x0, symName: __ZN3thcL20pawn_white_lookup_c1E, symObjAddr: 0x83B40, symBinAddr: 0x1000A8820, symSize: 0x0 }
  - { offsetInCU: 0x30CA, offset: 0x2485D, size: 0x8, addend: 0x0, symName: __ZN3thcL20pawn_white_lookup_d1E, symObjAddr: 0x83B60, symBinAddr: 0x1000A8840, symSize: 0x0 }
  - { offsetInCU: 0x30E5, offset: 0x24878, size: 0x8, addend: 0x0, symName: __ZN3thcL20pawn_white_lookup_e1E, symObjAddr: 0x83B80, symBinAddr: 0x1000A8860, symSize: 0x0 }
  - { offsetInCU: 0x3100, offset: 0x24893, size: 0x8, addend: 0x0, symName: __ZN3thcL20pawn_white_lookup_f1E, symObjAddr: 0x83BA0, symBinAddr: 0x1000A8880, symSize: 0x0 }
  - { offsetInCU: 0x311B, offset: 0x248AE, size: 0x8, addend: 0x0, symName: __ZN3thcL20pawn_white_lookup_g1E, symObjAddr: 0x83BC0, symBinAddr: 0x1000A88A0, symSize: 0x0 }
  - { offsetInCU: 0x3136, offset: 0x248C9, size: 0x8, addend: 0x0, symName: __ZN3thcL20pawn_white_lookup_h1E, symObjAddr: 0x83BE0, symBinAddr: 0x1000A88C0, symSize: 0x0 }
  - { offsetInCU: 0x3151, offset: 0x248E4, size: 0x8, addend: 0x0, symName: __ZN3thcL20pawn_black_lookup_a8E, symObjAddr: 0x83C00, symBinAddr: 0x1000A88E0, symSize: 0x0 }
  - { offsetInCU: 0x316C, offset: 0x248FF, size: 0x8, addend: 0x0, symName: __ZN3thcL20pawn_black_lookup_b8E, symObjAddr: 0x83C20, symBinAddr: 0x1000A8900, symSize: 0x0 }
  - { offsetInCU: 0x3187, offset: 0x2491A, size: 0x8, addend: 0x0, symName: __ZN3thcL20pawn_black_lookup_c8E, symObjAddr: 0x83C40, symBinAddr: 0x1000A8920, symSize: 0x0 }
  - { offsetInCU: 0x31A2, offset: 0x24935, size: 0x8, addend: 0x0, symName: __ZN3thcL20pawn_black_lookup_d8E, symObjAddr: 0x83C60, symBinAddr: 0x1000A8940, symSize: 0x0 }
  - { offsetInCU: 0x31BD, offset: 0x24950, size: 0x8, addend: 0x0, symName: __ZN3thcL20pawn_black_lookup_e8E, symObjAddr: 0x83C80, symBinAddr: 0x1000A8960, symSize: 0x0 }
  - { offsetInCU: 0x31D8, offset: 0x2496B, size: 0x8, addend: 0x0, symName: __ZN3thcL20pawn_black_lookup_f8E, symObjAddr: 0x83CA0, symBinAddr: 0x1000A8980, symSize: 0x0 }
  - { offsetInCU: 0x31F3, offset: 0x24986, size: 0x8, addend: 0x0, symName: __ZN3thcL20pawn_black_lookup_g8E, symObjAddr: 0x83CC0, symBinAddr: 0x1000A89A0, symSize: 0x0 }
  - { offsetInCU: 0x320E, offset: 0x249A1, size: 0x8, addend: 0x0, symName: __ZN3thcL20pawn_black_lookup_h8E, symObjAddr: 0x83CE0, symBinAddr: 0x1000A89C0, symSize: 0x0 }
  - { offsetInCU: 0x3229, offset: 0x249BC, size: 0x8, addend: 0x0, symName: __ZN3thcL20pawn_black_lookup_a7E, symObjAddr: 0x83D00, symBinAddr: 0x1000A89E0, symSize: 0x0 }
  - { offsetInCU: 0x3244, offset: 0x249D7, size: 0x8, addend: 0x0, symName: __ZN3thcL20pawn_black_lookup_b7E, symObjAddr: 0x83D20, symBinAddr: 0x1000A8A00, symSize: 0x0 }
  - { offsetInCU: 0x325F, offset: 0x249F2, size: 0x8, addend: 0x0, symName: __ZN3thcL20pawn_black_lookup_c7E, symObjAddr: 0x83D40, symBinAddr: 0x1000A8A20, symSize: 0x0 }
  - { offsetInCU: 0x327A, offset: 0x24A0D, size: 0x8, addend: 0x0, symName: __ZN3thcL20pawn_black_lookup_d7E, symObjAddr: 0x83D60, symBinAddr: 0x1000A8A40, symSize: 0x0 }
  - { offsetInCU: 0x3295, offset: 0x24A28, size: 0x8, addend: 0x0, symName: __ZN3thcL20pawn_black_lookup_e7E, symObjAddr: 0x83D80, symBinAddr: 0x1000A8A60, symSize: 0x0 }
  - { offsetInCU: 0x32B0, offset: 0x24A43, size: 0x8, addend: 0x0, symName: __ZN3thcL20pawn_black_lookup_f7E, symObjAddr: 0x83DA0, symBinAddr: 0x1000A8A80, symSize: 0x0 }
  - { offsetInCU: 0x32CB, offset: 0x24A5E, size: 0x8, addend: 0x0, symName: __ZN3thcL20pawn_black_lookup_g7E, symObjAddr: 0x83DC0, symBinAddr: 0x1000A8AA0, symSize: 0x0 }
  - { offsetInCU: 0x32E6, offset: 0x24A79, size: 0x8, addend: 0x0, symName: __ZN3thcL20pawn_black_lookup_h7E, symObjAddr: 0x83DE0, symBinAddr: 0x1000A8AC0, symSize: 0x0 }
  - { offsetInCU: 0x3301, offset: 0x24A94, size: 0x8, addend: 0x0, symName: __ZN3thcL20pawn_black_lookup_a6E, symObjAddr: 0x83E00, symBinAddr: 0x1000A8AE0, symSize: 0x0 }
  - { offsetInCU: 0x331C, offset: 0x24AAF, size: 0x8, addend: 0x0, symName: __ZN3thcL20pawn_black_lookup_b6E, symObjAddr: 0x83E20, symBinAddr: 0x1000A8B00, symSize: 0x0 }
  - { offsetInCU: 0x3337, offset: 0x24ACA, size: 0x8, addend: 0x0, symName: __ZN3thcL20pawn_black_lookup_c6E, symObjAddr: 0x83E40, symBinAddr: 0x1000A8B20, symSize: 0x0 }
  - { offsetInCU: 0x3352, offset: 0x24AE5, size: 0x8, addend: 0x0, symName: __ZN3thcL20pawn_black_lookup_d6E, symObjAddr: 0x83E60, symBinAddr: 0x1000A8B40, symSize: 0x0 }
  - { offsetInCU: 0x336D, offset: 0x24B00, size: 0x8, addend: 0x0, symName: __ZN3thcL20pawn_black_lookup_e6E, symObjAddr: 0x83E80, symBinAddr: 0x1000A8B60, symSize: 0x0 }
  - { offsetInCU: 0x3388, offset: 0x24B1B, size: 0x8, addend: 0x0, symName: __ZN3thcL20pawn_black_lookup_f6E, symObjAddr: 0x83EA0, symBinAddr: 0x1000A8B80, symSize: 0x0 }
  - { offsetInCU: 0x33A3, offset: 0x24B36, size: 0x8, addend: 0x0, symName: __ZN3thcL20pawn_black_lookup_g6E, symObjAddr: 0x83EC0, symBinAddr: 0x1000A8BA0, symSize: 0x0 }
  - { offsetInCU: 0x33BE, offset: 0x24B51, size: 0x8, addend: 0x0, symName: __ZN3thcL20pawn_black_lookup_h6E, symObjAddr: 0x83EE0, symBinAddr: 0x1000A8BC0, symSize: 0x0 }
  - { offsetInCU: 0x33D9, offset: 0x24B6C, size: 0x8, addend: 0x0, symName: __ZN3thcL20pawn_black_lookup_a5E, symObjAddr: 0x83F00, symBinAddr: 0x1000A8BE0, symSize: 0x0 }
  - { offsetInCU: 0x33F4, offset: 0x24B87, size: 0x8, addend: 0x0, symName: __ZN3thcL20pawn_black_lookup_b5E, symObjAddr: 0x83F20, symBinAddr: 0x1000A8C00, symSize: 0x0 }
  - { offsetInCU: 0x340F, offset: 0x24BA2, size: 0x8, addend: 0x0, symName: __ZN3thcL20pawn_black_lookup_c5E, symObjAddr: 0x83F40, symBinAddr: 0x1000A8C20, symSize: 0x0 }
  - { offsetInCU: 0x342A, offset: 0x24BBD, size: 0x8, addend: 0x0, symName: __ZN3thcL20pawn_black_lookup_d5E, symObjAddr: 0x83F60, symBinAddr: 0x1000A8C40, symSize: 0x0 }
  - { offsetInCU: 0x3445, offset: 0x24BD8, size: 0x8, addend: 0x0, symName: __ZN3thcL20pawn_black_lookup_e5E, symObjAddr: 0x83F80, symBinAddr: 0x1000A8C60, symSize: 0x0 }
  - { offsetInCU: 0x3460, offset: 0x24BF3, size: 0x8, addend: 0x0, symName: __ZN3thcL20pawn_black_lookup_f5E, symObjAddr: 0x83FA0, symBinAddr: 0x1000A8C80, symSize: 0x0 }
  - { offsetInCU: 0x347B, offset: 0x24C0E, size: 0x8, addend: 0x0, symName: __ZN3thcL20pawn_black_lookup_g5E, symObjAddr: 0x83FC0, symBinAddr: 0x1000A8CA0, symSize: 0x0 }
  - { offsetInCU: 0x3496, offset: 0x24C29, size: 0x8, addend: 0x0, symName: __ZN3thcL20pawn_black_lookup_h5E, symObjAddr: 0x83FE0, symBinAddr: 0x1000A8CC0, symSize: 0x0 }
  - { offsetInCU: 0x34B1, offset: 0x24C44, size: 0x8, addend: 0x0, symName: __ZN3thcL20pawn_black_lookup_a4E, symObjAddr: 0x84000, symBinAddr: 0x1000A8CE0, symSize: 0x0 }
  - { offsetInCU: 0x34CC, offset: 0x24C5F, size: 0x8, addend: 0x0, symName: __ZN3thcL20pawn_black_lookup_b4E, symObjAddr: 0x84020, symBinAddr: 0x1000A8D00, symSize: 0x0 }
  - { offsetInCU: 0x34E7, offset: 0x24C7A, size: 0x8, addend: 0x0, symName: __ZN3thcL20pawn_black_lookup_c4E, symObjAddr: 0x84040, symBinAddr: 0x1000A8D20, symSize: 0x0 }
  - { offsetInCU: 0x3502, offset: 0x24C95, size: 0x8, addend: 0x0, symName: __ZN3thcL20pawn_black_lookup_d4E, symObjAddr: 0x84060, symBinAddr: 0x1000A8D40, symSize: 0x0 }
  - { offsetInCU: 0x351D, offset: 0x24CB0, size: 0x8, addend: 0x0, symName: __ZN3thcL20pawn_black_lookup_e4E, symObjAddr: 0x84080, symBinAddr: 0x1000A8D60, symSize: 0x0 }
  - { offsetInCU: 0x3538, offset: 0x24CCB, size: 0x8, addend: 0x0, symName: __ZN3thcL20pawn_black_lookup_f4E, symObjAddr: 0x840A0, symBinAddr: 0x1000A8D80, symSize: 0x0 }
  - { offsetInCU: 0x3553, offset: 0x24CE6, size: 0x8, addend: 0x0, symName: __ZN3thcL20pawn_black_lookup_g4E, symObjAddr: 0x840C0, symBinAddr: 0x1000A8DA0, symSize: 0x0 }
  - { offsetInCU: 0x356E, offset: 0x24D01, size: 0x8, addend: 0x0, symName: __ZN3thcL20pawn_black_lookup_h4E, symObjAddr: 0x840E0, symBinAddr: 0x1000A8DC0, symSize: 0x0 }
  - { offsetInCU: 0x3589, offset: 0x24D1C, size: 0x8, addend: 0x0, symName: __ZN3thcL20pawn_black_lookup_a3E, symObjAddr: 0x84100, symBinAddr: 0x1000A8DE0, symSize: 0x0 }
  - { offsetInCU: 0x35A4, offset: 0x24D37, size: 0x8, addend: 0x0, symName: __ZN3thcL20pawn_black_lookup_b3E, symObjAddr: 0x84120, symBinAddr: 0x1000A8E00, symSize: 0x0 }
  - { offsetInCU: 0x35BF, offset: 0x24D52, size: 0x8, addend: 0x0, symName: __ZN3thcL20pawn_black_lookup_c3E, symObjAddr: 0x84140, symBinAddr: 0x1000A8E20, symSize: 0x0 }
  - { offsetInCU: 0x35DA, offset: 0x24D6D, size: 0x8, addend: 0x0, symName: __ZN3thcL20pawn_black_lookup_d3E, symObjAddr: 0x84160, symBinAddr: 0x1000A8E40, symSize: 0x0 }
  - { offsetInCU: 0x35F5, offset: 0x24D88, size: 0x8, addend: 0x0, symName: __ZN3thcL20pawn_black_lookup_e3E, symObjAddr: 0x84180, symBinAddr: 0x1000A8E60, symSize: 0x0 }
  - { offsetInCU: 0x3610, offset: 0x24DA3, size: 0x8, addend: 0x0, symName: __ZN3thcL20pawn_black_lookup_f3E, symObjAddr: 0x841A0, symBinAddr: 0x1000A8E80, symSize: 0x0 }
  - { offsetInCU: 0x362B, offset: 0x24DBE, size: 0x8, addend: 0x0, symName: __ZN3thcL20pawn_black_lookup_g3E, symObjAddr: 0x841C0, symBinAddr: 0x1000A8EA0, symSize: 0x0 }
  - { offsetInCU: 0x3646, offset: 0x24DD9, size: 0x8, addend: 0x0, symName: __ZN3thcL20pawn_black_lookup_h3E, symObjAddr: 0x841E0, symBinAddr: 0x1000A8EC0, symSize: 0x0 }
  - { offsetInCU: 0x3661, offset: 0x24DF4, size: 0x8, addend: 0x0, symName: __ZN3thcL20pawn_black_lookup_a2E, symObjAddr: 0x84200, symBinAddr: 0x1000A8EE0, symSize: 0x0 }
  - { offsetInCU: 0x367C, offset: 0x24E0F, size: 0x8, addend: 0x0, symName: __ZN3thcL20pawn_black_lookup_b2E, symObjAddr: 0x84220, symBinAddr: 0x1000A8F00, symSize: 0x0 }
  - { offsetInCU: 0x3697, offset: 0x24E2A, size: 0x8, addend: 0x0, symName: __ZN3thcL20pawn_black_lookup_c2E, symObjAddr: 0x84240, symBinAddr: 0x1000A8F20, symSize: 0x0 }
  - { offsetInCU: 0x36B2, offset: 0x24E45, size: 0x8, addend: 0x0, symName: __ZN3thcL20pawn_black_lookup_d2E, symObjAddr: 0x84260, symBinAddr: 0x1000A8F40, symSize: 0x0 }
  - { offsetInCU: 0x36CD, offset: 0x24E60, size: 0x8, addend: 0x0, symName: __ZN3thcL20pawn_black_lookup_e2E, symObjAddr: 0x84280, symBinAddr: 0x1000A8F60, symSize: 0x0 }
  - { offsetInCU: 0x36E8, offset: 0x24E7B, size: 0x8, addend: 0x0, symName: __ZN3thcL20pawn_black_lookup_f2E, symObjAddr: 0x842A0, symBinAddr: 0x1000A8F80, symSize: 0x0 }
  - { offsetInCU: 0x3703, offset: 0x24E96, size: 0x8, addend: 0x0, symName: __ZN3thcL20pawn_black_lookup_g2E, symObjAddr: 0x842C0, symBinAddr: 0x1000A8FA0, symSize: 0x0 }
  - { offsetInCU: 0x371E, offset: 0x24EB1, size: 0x8, addend: 0x0, symName: __ZN3thcL20pawn_black_lookup_h2E, symObjAddr: 0x842E0, symBinAddr: 0x1000A8FC0, symSize: 0x0 }
  - { offsetInCU: 0x3739, offset: 0x24ECC, size: 0x8, addend: 0x0, symName: __ZN3thcL20pawn_black_lookup_a1E, symObjAddr: 0x84300, symBinAddr: 0x1000A8FE0, symSize: 0x0 }
  - { offsetInCU: 0x3754, offset: 0x24EE7, size: 0x8, addend: 0x0, symName: __ZN3thcL20pawn_black_lookup_b1E, symObjAddr: 0x84320, symBinAddr: 0x1000A9000, symSize: 0x0 }
  - { offsetInCU: 0x376F, offset: 0x24F02, size: 0x8, addend: 0x0, symName: __ZN3thcL20pawn_black_lookup_c1E, symObjAddr: 0x84340, symBinAddr: 0x1000A9020, symSize: 0x0 }
  - { offsetInCU: 0x378A, offset: 0x24F1D, size: 0x8, addend: 0x0, symName: __ZN3thcL20pawn_black_lookup_d1E, symObjAddr: 0x84360, symBinAddr: 0x1000A9040, symSize: 0x0 }
  - { offsetInCU: 0x37A5, offset: 0x24F38, size: 0x8, addend: 0x0, symName: __ZN3thcL20pawn_black_lookup_e1E, symObjAddr: 0x84380, symBinAddr: 0x1000A9060, symSize: 0x0 }
  - { offsetInCU: 0x37C0, offset: 0x24F53, size: 0x8, addend: 0x0, symName: __ZN3thcL20pawn_black_lookup_f1E, symObjAddr: 0x843A0, symBinAddr: 0x1000A9080, symSize: 0x0 }
  - { offsetInCU: 0x37DB, offset: 0x24F6E, size: 0x8, addend: 0x0, symName: __ZN3thcL20pawn_black_lookup_g1E, symObjAddr: 0x843C0, symBinAddr: 0x1000A90A0, symSize: 0x0 }
  - { offsetInCU: 0x37F6, offset: 0x24F89, size: 0x8, addend: 0x0, symName: __ZN3thcL20pawn_black_lookup_h1E, symObjAddr: 0x843E0, symBinAddr: 0x1000A90C0, symSize: 0x0 }
  - { offsetInCU: 0x3811, offset: 0x24FA4, size: 0x8, addend: 0x0, symName: __ZN3thcL28good_king_position_lookup_a8E, symObjAddr: 0x84400, symBinAddr: 0x1000A90E0, symSize: 0x0 }
  - { offsetInCU: 0x382C, offset: 0x24FBF, size: 0x8, addend: 0x0, symName: __ZN3thcL28good_king_position_lookup_b8E, symObjAddr: 0x84420, symBinAddr: 0x1000A9100, symSize: 0x0 }
  - { offsetInCU: 0x3847, offset: 0x24FDA, size: 0x8, addend: 0x0, symName: __ZN3thcL28good_king_position_lookup_c8E, symObjAddr: 0x84440, symBinAddr: 0x1000A9120, symSize: 0x0 }
  - { offsetInCU: 0x3862, offset: 0x24FF5, size: 0x8, addend: 0x0, symName: __ZN3thcL28good_king_position_lookup_d8E, symObjAddr: 0x84460, symBinAddr: 0x1000A9140, symSize: 0x0 }
  - { offsetInCU: 0x387D, offset: 0x25010, size: 0x8, addend: 0x0, symName: __ZN3thcL28good_king_position_lookup_e8E, symObjAddr: 0x84480, symBinAddr: 0x1000A9160, symSize: 0x0 }
  - { offsetInCU: 0x3898, offset: 0x2502B, size: 0x8, addend: 0x0, symName: __ZN3thcL28good_king_position_lookup_f8E, symObjAddr: 0x844A0, symBinAddr: 0x1000A9180, symSize: 0x0 }
  - { offsetInCU: 0x38B3, offset: 0x25046, size: 0x8, addend: 0x0, symName: __ZN3thcL28good_king_position_lookup_g8E, symObjAddr: 0x844C0, symBinAddr: 0x1000A91A0, symSize: 0x0 }
  - { offsetInCU: 0x38CE, offset: 0x25061, size: 0x8, addend: 0x0, symName: __ZN3thcL28good_king_position_lookup_h8E, symObjAddr: 0x844E0, symBinAddr: 0x1000A91C0, symSize: 0x0 }
  - { offsetInCU: 0x38E9, offset: 0x2507C, size: 0x8, addend: 0x0, symName: __ZN3thcL28good_king_position_lookup_a7E, symObjAddr: 0x84500, symBinAddr: 0x1000A91E0, symSize: 0x0 }
  - { offsetInCU: 0x3904, offset: 0x25097, size: 0x8, addend: 0x0, symName: __ZN3thcL28good_king_position_lookup_b7E, symObjAddr: 0x84520, symBinAddr: 0x1000A9200, symSize: 0x0 }
  - { offsetInCU: 0x391F, offset: 0x250B2, size: 0x8, addend: 0x0, symName: __ZN3thcL28good_king_position_lookup_c7E, symObjAddr: 0x84540, symBinAddr: 0x1000A9220, symSize: 0x0 }
  - { offsetInCU: 0x393A, offset: 0x250CD, size: 0x8, addend: 0x0, symName: __ZN3thcL28good_king_position_lookup_d7E, symObjAddr: 0x84560, symBinAddr: 0x1000A9240, symSize: 0x0 }
  - { offsetInCU: 0x3955, offset: 0x250E8, size: 0x8, addend: 0x0, symName: __ZN3thcL28good_king_position_lookup_e7E, symObjAddr: 0x84580, symBinAddr: 0x1000A9260, symSize: 0x0 }
  - { offsetInCU: 0x3970, offset: 0x25103, size: 0x8, addend: 0x0, symName: __ZN3thcL28good_king_position_lookup_f7E, symObjAddr: 0x845A0, symBinAddr: 0x1000A9280, symSize: 0x0 }
  - { offsetInCU: 0x398B, offset: 0x2511E, size: 0x8, addend: 0x0, symName: __ZN3thcL28good_king_position_lookup_g7E, symObjAddr: 0x845C0, symBinAddr: 0x1000A92A0, symSize: 0x0 }
  - { offsetInCU: 0x39A6, offset: 0x25139, size: 0x8, addend: 0x0, symName: __ZN3thcL28good_king_position_lookup_h7E, symObjAddr: 0x845E0, symBinAddr: 0x1000A92C0, symSize: 0x0 }
  - { offsetInCU: 0x39C1, offset: 0x25154, size: 0x8, addend: 0x0, symName: __ZN3thcL28good_king_position_lookup_a6E, symObjAddr: 0x84600, symBinAddr: 0x1000A92E0, symSize: 0x0 }
  - { offsetInCU: 0x39DC, offset: 0x2516F, size: 0x8, addend: 0x0, symName: __ZN3thcL28good_king_position_lookup_b6E, symObjAddr: 0x84620, symBinAddr: 0x1000A9300, symSize: 0x0 }
  - { offsetInCU: 0x39F7, offset: 0x2518A, size: 0x8, addend: 0x0, symName: __ZN3thcL28good_king_position_lookup_c6E, symObjAddr: 0x84640, symBinAddr: 0x1000A9320, symSize: 0x0 }
  - { offsetInCU: 0x3A12, offset: 0x251A5, size: 0x8, addend: 0x0, symName: __ZN3thcL28good_king_position_lookup_d6E, symObjAddr: 0x84660, symBinAddr: 0x1000A9340, symSize: 0x0 }
  - { offsetInCU: 0x3A2D, offset: 0x251C0, size: 0x8, addend: 0x0, symName: __ZN3thcL28good_king_position_lookup_e6E, symObjAddr: 0x84680, symBinAddr: 0x1000A9360, symSize: 0x0 }
  - { offsetInCU: 0x3A48, offset: 0x251DB, size: 0x8, addend: 0x0, symName: __ZN3thcL28good_king_position_lookup_f6E, symObjAddr: 0x846A0, symBinAddr: 0x1000A9380, symSize: 0x0 }
  - { offsetInCU: 0x3A63, offset: 0x251F6, size: 0x8, addend: 0x0, symName: __ZN3thcL28good_king_position_lookup_g6E, symObjAddr: 0x846C0, symBinAddr: 0x1000A93A0, symSize: 0x0 }
  - { offsetInCU: 0x3A7E, offset: 0x25211, size: 0x8, addend: 0x0, symName: __ZN3thcL28good_king_position_lookup_h6E, symObjAddr: 0x846E0, symBinAddr: 0x1000A93C0, symSize: 0x0 }
  - { offsetInCU: 0x3A99, offset: 0x2522C, size: 0x8, addend: 0x0, symName: __ZN3thcL28good_king_position_lookup_a5E, symObjAddr: 0x84700, symBinAddr: 0x1000A93E0, symSize: 0x0 }
  - { offsetInCU: 0x3AB4, offset: 0x25247, size: 0x8, addend: 0x0, symName: __ZN3thcL28good_king_position_lookup_b5E, symObjAddr: 0x84720, symBinAddr: 0x1000A9400, symSize: 0x0 }
  - { offsetInCU: 0x3ACF, offset: 0x25262, size: 0x8, addend: 0x0, symName: __ZN3thcL28good_king_position_lookup_c5E, symObjAddr: 0x84740, symBinAddr: 0x1000A9420, symSize: 0x0 }
  - { offsetInCU: 0x3AEA, offset: 0x2527D, size: 0x8, addend: 0x0, symName: __ZN3thcL28good_king_position_lookup_d5E, symObjAddr: 0x84760, symBinAddr: 0x1000A9440, symSize: 0x0 }
  - { offsetInCU: 0x3B05, offset: 0x25298, size: 0x8, addend: 0x0, symName: __ZN3thcL28good_king_position_lookup_e5E, symObjAddr: 0x84780, symBinAddr: 0x1000A9460, symSize: 0x0 }
  - { offsetInCU: 0x3B20, offset: 0x252B3, size: 0x8, addend: 0x0, symName: __ZN3thcL28good_king_position_lookup_f5E, symObjAddr: 0x847A0, symBinAddr: 0x1000A9480, symSize: 0x0 }
  - { offsetInCU: 0x3B3B, offset: 0x252CE, size: 0x8, addend: 0x0, symName: __ZN3thcL28good_king_position_lookup_g5E, symObjAddr: 0x847C0, symBinAddr: 0x1000A94A0, symSize: 0x0 }
  - { offsetInCU: 0x3B56, offset: 0x252E9, size: 0x8, addend: 0x0, symName: __ZN3thcL28good_king_position_lookup_h5E, symObjAddr: 0x847E0, symBinAddr: 0x1000A94C0, symSize: 0x0 }
  - { offsetInCU: 0x3B71, offset: 0x25304, size: 0x8, addend: 0x0, symName: __ZN3thcL28good_king_position_lookup_a4E, symObjAddr: 0x84800, symBinAddr: 0x1000A94E0, symSize: 0x0 }
  - { offsetInCU: 0x3B8C, offset: 0x2531F, size: 0x8, addend: 0x0, symName: __ZN3thcL28good_king_position_lookup_b4E, symObjAddr: 0x84820, symBinAddr: 0x1000A9500, symSize: 0x0 }
  - { offsetInCU: 0x3BA7, offset: 0x2533A, size: 0x8, addend: 0x0, symName: __ZN3thcL28good_king_position_lookup_c4E, symObjAddr: 0x84840, symBinAddr: 0x1000A9520, symSize: 0x0 }
  - { offsetInCU: 0x3BC2, offset: 0x25355, size: 0x8, addend: 0x0, symName: __ZN3thcL28good_king_position_lookup_d4E, symObjAddr: 0x84860, symBinAddr: 0x1000A9540, symSize: 0x0 }
  - { offsetInCU: 0x3BDD, offset: 0x25370, size: 0x8, addend: 0x0, symName: __ZN3thcL28good_king_position_lookup_e4E, symObjAddr: 0x84880, symBinAddr: 0x1000A9560, symSize: 0x0 }
  - { offsetInCU: 0x3BF8, offset: 0x2538B, size: 0x8, addend: 0x0, symName: __ZN3thcL28good_king_position_lookup_f4E, symObjAddr: 0x848A0, symBinAddr: 0x1000A9580, symSize: 0x0 }
  - { offsetInCU: 0x3C13, offset: 0x253A6, size: 0x8, addend: 0x0, symName: __ZN3thcL28good_king_position_lookup_g4E, symObjAddr: 0x848C0, symBinAddr: 0x1000A95A0, symSize: 0x0 }
  - { offsetInCU: 0x3C2E, offset: 0x253C1, size: 0x8, addend: 0x0, symName: __ZN3thcL28good_king_position_lookup_h4E, symObjAddr: 0x848E0, symBinAddr: 0x1000A95C0, symSize: 0x0 }
  - { offsetInCU: 0x3C49, offset: 0x253DC, size: 0x8, addend: 0x0, symName: __ZN3thcL28good_king_position_lookup_a3E, symObjAddr: 0x84900, symBinAddr: 0x1000A95E0, symSize: 0x0 }
  - { offsetInCU: 0x3C64, offset: 0x253F7, size: 0x8, addend: 0x0, symName: __ZN3thcL28good_king_position_lookup_b3E, symObjAddr: 0x84920, symBinAddr: 0x1000A9600, symSize: 0x0 }
  - { offsetInCU: 0x3C7F, offset: 0x25412, size: 0x8, addend: 0x0, symName: __ZN3thcL28good_king_position_lookup_c3E, symObjAddr: 0x84940, symBinAddr: 0x1000A9620, symSize: 0x0 }
  - { offsetInCU: 0x3C9A, offset: 0x2542D, size: 0x8, addend: 0x0, symName: __ZN3thcL28good_king_position_lookup_d3E, symObjAddr: 0x84960, symBinAddr: 0x1000A9640, symSize: 0x0 }
  - { offsetInCU: 0x3CB5, offset: 0x25448, size: 0x8, addend: 0x0, symName: __ZN3thcL28good_king_position_lookup_e3E, symObjAddr: 0x84980, symBinAddr: 0x1000A9660, symSize: 0x0 }
  - { offsetInCU: 0x3CD0, offset: 0x25463, size: 0x8, addend: 0x0, symName: __ZN3thcL28good_king_position_lookup_f3E, symObjAddr: 0x849A0, symBinAddr: 0x1000A9680, symSize: 0x0 }
  - { offsetInCU: 0x3CEB, offset: 0x2547E, size: 0x8, addend: 0x0, symName: __ZN3thcL28good_king_position_lookup_g3E, symObjAddr: 0x849C0, symBinAddr: 0x1000A96A0, symSize: 0x0 }
  - { offsetInCU: 0x3D06, offset: 0x25499, size: 0x8, addend: 0x0, symName: __ZN3thcL28good_king_position_lookup_h3E, symObjAddr: 0x849E0, symBinAddr: 0x1000A96C0, symSize: 0x0 }
  - { offsetInCU: 0x3D21, offset: 0x254B4, size: 0x8, addend: 0x0, symName: __ZN3thcL28good_king_position_lookup_a2E, symObjAddr: 0x84A00, symBinAddr: 0x1000A96E0, symSize: 0x0 }
  - { offsetInCU: 0x3D3C, offset: 0x254CF, size: 0x8, addend: 0x0, symName: __ZN3thcL28good_king_position_lookup_b2E, symObjAddr: 0x84A20, symBinAddr: 0x1000A9700, symSize: 0x0 }
  - { offsetInCU: 0x3D57, offset: 0x254EA, size: 0x8, addend: 0x0, symName: __ZN3thcL28good_king_position_lookup_c2E, symObjAddr: 0x84A40, symBinAddr: 0x1000A9720, symSize: 0x0 }
  - { offsetInCU: 0x3D72, offset: 0x25505, size: 0x8, addend: 0x0, symName: __ZN3thcL28good_king_position_lookup_d2E, symObjAddr: 0x84A60, symBinAddr: 0x1000A9740, symSize: 0x0 }
  - { offsetInCU: 0x3D8D, offset: 0x25520, size: 0x8, addend: 0x0, symName: __ZN3thcL28good_king_position_lookup_e2E, symObjAddr: 0x84A80, symBinAddr: 0x1000A9760, symSize: 0x0 }
  - { offsetInCU: 0x3DA8, offset: 0x2553B, size: 0x8, addend: 0x0, symName: __ZN3thcL28good_king_position_lookup_f2E, symObjAddr: 0x84AA0, symBinAddr: 0x1000A9780, symSize: 0x0 }
  - { offsetInCU: 0x3DC3, offset: 0x25556, size: 0x8, addend: 0x0, symName: __ZN3thcL28good_king_position_lookup_g2E, symObjAddr: 0x84AC0, symBinAddr: 0x1000A97A0, symSize: 0x0 }
  - { offsetInCU: 0x3DDE, offset: 0x25571, size: 0x8, addend: 0x0, symName: __ZN3thcL28good_king_position_lookup_h2E, symObjAddr: 0x84AE0, symBinAddr: 0x1000A97C0, symSize: 0x0 }
  - { offsetInCU: 0x3DF9, offset: 0x2558C, size: 0x8, addend: 0x0, symName: __ZN3thcL28good_king_position_lookup_a1E, symObjAddr: 0x84B00, symBinAddr: 0x1000A97E0, symSize: 0x0 }
  - { offsetInCU: 0x3E14, offset: 0x255A7, size: 0x8, addend: 0x0, symName: __ZN3thcL28good_king_position_lookup_b1E, symObjAddr: 0x84B20, symBinAddr: 0x1000A9800, symSize: 0x0 }
  - { offsetInCU: 0x3E2F, offset: 0x255C2, size: 0x8, addend: 0x0, symName: __ZN3thcL28good_king_position_lookup_c1E, symObjAddr: 0x84B40, symBinAddr: 0x1000A9820, symSize: 0x0 }
  - { offsetInCU: 0x3E4A, offset: 0x255DD, size: 0x8, addend: 0x0, symName: __ZN3thcL28good_king_position_lookup_d1E, symObjAddr: 0x84B60, symBinAddr: 0x1000A9840, symSize: 0x0 }
  - { offsetInCU: 0x3E65, offset: 0x255F8, size: 0x8, addend: 0x0, symName: __ZN3thcL28good_king_position_lookup_e1E, symObjAddr: 0x84B80, symBinAddr: 0x1000A9860, symSize: 0x0 }
  - { offsetInCU: 0x3E80, offset: 0x25613, size: 0x8, addend: 0x0, symName: __ZN3thcL28good_king_position_lookup_f1E, symObjAddr: 0x84BA0, symBinAddr: 0x1000A9880, symSize: 0x0 }
  - { offsetInCU: 0x3E9B, offset: 0x2562E, size: 0x8, addend: 0x0, symName: __ZN3thcL28good_king_position_lookup_g1E, symObjAddr: 0x84BC0, symBinAddr: 0x1000A98A0, symSize: 0x0 }
  - { offsetInCU: 0x3EB6, offset: 0x25649, size: 0x8, addend: 0x0, symName: __ZN3thcL28good_king_position_lookup_h1E, symObjAddr: 0x84BE0, symBinAddr: 0x1000A98C0, symSize: 0x0 }
  - { offsetInCU: 0x3ED1, offset: 0x25664, size: 0x8, addend: 0x0, symName: __ZN3thcL28pawn_attacks_white_lookup_a8E, symObjAddr: 0x84C00, symBinAddr: 0x1000A98E0, symSize: 0x0 }
  - { offsetInCU: 0x3EEC, offset: 0x2567F, size: 0x8, addend: 0x0, symName: __ZN3thcL28pawn_attacks_white_lookup_b8E, symObjAddr: 0x84C20, symBinAddr: 0x1000A9900, symSize: 0x0 }
  - { offsetInCU: 0x3F07, offset: 0x2569A, size: 0x8, addend: 0x0, symName: __ZN3thcL28pawn_attacks_white_lookup_c8E, symObjAddr: 0x84C40, symBinAddr: 0x1000A9920, symSize: 0x0 }
  - { offsetInCU: 0x3F22, offset: 0x256B5, size: 0x8, addend: 0x0, symName: __ZN3thcL28pawn_attacks_white_lookup_d8E, symObjAddr: 0x84C60, symBinAddr: 0x1000A9940, symSize: 0x0 }
  - { offsetInCU: 0x3F3D, offset: 0x256D0, size: 0x8, addend: 0x0, symName: __ZN3thcL28pawn_attacks_white_lookup_e8E, symObjAddr: 0x84C80, symBinAddr: 0x1000A9960, symSize: 0x0 }
  - { offsetInCU: 0x3F58, offset: 0x256EB, size: 0x8, addend: 0x0, symName: __ZN3thcL28pawn_attacks_white_lookup_f8E, symObjAddr: 0x84CA0, symBinAddr: 0x1000A9980, symSize: 0x0 }
  - { offsetInCU: 0x3F73, offset: 0x25706, size: 0x8, addend: 0x0, symName: __ZN3thcL28pawn_attacks_white_lookup_g8E, symObjAddr: 0x84CC0, symBinAddr: 0x1000A99A0, symSize: 0x0 }
  - { offsetInCU: 0x3F8E, offset: 0x25721, size: 0x8, addend: 0x0, symName: __ZN3thcL28pawn_attacks_white_lookup_h8E, symObjAddr: 0x84CE0, symBinAddr: 0x1000A99C0, symSize: 0x0 }
  - { offsetInCU: 0x3FA9, offset: 0x2573C, size: 0x8, addend: 0x0, symName: __ZN3thcL28pawn_attacks_white_lookup_a7E, symObjAddr: 0x84D00, symBinAddr: 0x1000A99E0, symSize: 0x0 }
  - { offsetInCU: 0x3FC4, offset: 0x25757, size: 0x8, addend: 0x0, symName: __ZN3thcL28pawn_attacks_white_lookup_b7E, symObjAddr: 0x84D20, symBinAddr: 0x1000A9A00, symSize: 0x0 }
  - { offsetInCU: 0x3FDF, offset: 0x25772, size: 0x8, addend: 0x0, symName: __ZN3thcL28pawn_attacks_white_lookup_c7E, symObjAddr: 0x84D40, symBinAddr: 0x1000A9A20, symSize: 0x0 }
  - { offsetInCU: 0x3FFA, offset: 0x2578D, size: 0x8, addend: 0x0, symName: __ZN3thcL28pawn_attacks_white_lookup_d7E, symObjAddr: 0x84D60, symBinAddr: 0x1000A9A40, symSize: 0x0 }
  - { offsetInCU: 0x4015, offset: 0x257A8, size: 0x8, addend: 0x0, symName: __ZN3thcL28pawn_attacks_white_lookup_e7E, symObjAddr: 0x84D80, symBinAddr: 0x1000A9A60, symSize: 0x0 }
  - { offsetInCU: 0x4030, offset: 0x257C3, size: 0x8, addend: 0x0, symName: __ZN3thcL28pawn_attacks_white_lookup_f7E, symObjAddr: 0x84DA0, symBinAddr: 0x1000A9A80, symSize: 0x0 }
  - { offsetInCU: 0x404B, offset: 0x257DE, size: 0x8, addend: 0x0, symName: __ZN3thcL28pawn_attacks_white_lookup_g7E, symObjAddr: 0x84DC0, symBinAddr: 0x1000A9AA0, symSize: 0x0 }
  - { offsetInCU: 0x4066, offset: 0x257F9, size: 0x8, addend: 0x0, symName: __ZN3thcL28pawn_attacks_white_lookup_h7E, symObjAddr: 0x84DE0, symBinAddr: 0x1000A9AC0, symSize: 0x0 }
  - { offsetInCU: 0x4081, offset: 0x25814, size: 0x8, addend: 0x0, symName: __ZN3thcL28pawn_attacks_white_lookup_a6E, symObjAddr: 0x84E00, symBinAddr: 0x1000A9AE0, symSize: 0x0 }
  - { offsetInCU: 0x409C, offset: 0x2582F, size: 0x8, addend: 0x0, symName: __ZN3thcL28pawn_attacks_white_lookup_b6E, symObjAddr: 0x84E20, symBinAddr: 0x1000A9B00, symSize: 0x0 }
  - { offsetInCU: 0x40B7, offset: 0x2584A, size: 0x8, addend: 0x0, symName: __ZN3thcL28pawn_attacks_white_lookup_c6E, symObjAddr: 0x84E40, symBinAddr: 0x1000A9B20, symSize: 0x0 }
  - { offsetInCU: 0x40D2, offset: 0x25865, size: 0x8, addend: 0x0, symName: __ZN3thcL28pawn_attacks_white_lookup_d6E, symObjAddr: 0x84E60, symBinAddr: 0x1000A9B40, symSize: 0x0 }
  - { offsetInCU: 0x40ED, offset: 0x25880, size: 0x8, addend: 0x0, symName: __ZN3thcL28pawn_attacks_white_lookup_e6E, symObjAddr: 0x84E80, symBinAddr: 0x1000A9B60, symSize: 0x0 }
  - { offsetInCU: 0x4108, offset: 0x2589B, size: 0x8, addend: 0x0, symName: __ZN3thcL28pawn_attacks_white_lookup_f6E, symObjAddr: 0x84EA0, symBinAddr: 0x1000A9B80, symSize: 0x0 }
  - { offsetInCU: 0x4123, offset: 0x258B6, size: 0x8, addend: 0x0, symName: __ZN3thcL28pawn_attacks_white_lookup_g6E, symObjAddr: 0x84EC0, symBinAddr: 0x1000A9BA0, symSize: 0x0 }
  - { offsetInCU: 0x413E, offset: 0x258D1, size: 0x8, addend: 0x0, symName: __ZN3thcL28pawn_attacks_white_lookup_h6E, symObjAddr: 0x84EE0, symBinAddr: 0x1000A9BC0, symSize: 0x0 }
  - { offsetInCU: 0x4159, offset: 0x258EC, size: 0x8, addend: 0x0, symName: __ZN3thcL28pawn_attacks_white_lookup_a5E, symObjAddr: 0x84F00, symBinAddr: 0x1000A9BE0, symSize: 0x0 }
  - { offsetInCU: 0x4174, offset: 0x25907, size: 0x8, addend: 0x0, symName: __ZN3thcL28pawn_attacks_white_lookup_b5E, symObjAddr: 0x84F20, symBinAddr: 0x1000A9C00, symSize: 0x0 }
  - { offsetInCU: 0x418F, offset: 0x25922, size: 0x8, addend: 0x0, symName: __ZN3thcL28pawn_attacks_white_lookup_c5E, symObjAddr: 0x84F40, symBinAddr: 0x1000A9C20, symSize: 0x0 }
  - { offsetInCU: 0x41AA, offset: 0x2593D, size: 0x8, addend: 0x0, symName: __ZN3thcL28pawn_attacks_white_lookup_d5E, symObjAddr: 0x84F60, symBinAddr: 0x1000A9C40, symSize: 0x0 }
  - { offsetInCU: 0x41C5, offset: 0x25958, size: 0x8, addend: 0x0, symName: __ZN3thcL28pawn_attacks_white_lookup_e5E, symObjAddr: 0x84F80, symBinAddr: 0x1000A9C60, symSize: 0x0 }
  - { offsetInCU: 0x41E0, offset: 0x25973, size: 0x8, addend: 0x0, symName: __ZN3thcL28pawn_attacks_white_lookup_f5E, symObjAddr: 0x84FA0, symBinAddr: 0x1000A9C80, symSize: 0x0 }
  - { offsetInCU: 0x41FB, offset: 0x2598E, size: 0x8, addend: 0x0, symName: __ZN3thcL28pawn_attacks_white_lookup_g5E, symObjAddr: 0x84FC0, symBinAddr: 0x1000A9CA0, symSize: 0x0 }
  - { offsetInCU: 0x4216, offset: 0x259A9, size: 0x8, addend: 0x0, symName: __ZN3thcL28pawn_attacks_white_lookup_h5E, symObjAddr: 0x84FE0, symBinAddr: 0x1000A9CC0, symSize: 0x0 }
  - { offsetInCU: 0x4231, offset: 0x259C4, size: 0x8, addend: 0x0, symName: __ZN3thcL28pawn_attacks_white_lookup_a4E, symObjAddr: 0x85000, symBinAddr: 0x1000A9CE0, symSize: 0x0 }
  - { offsetInCU: 0x424C, offset: 0x259DF, size: 0x8, addend: 0x0, symName: __ZN3thcL28pawn_attacks_white_lookup_b4E, symObjAddr: 0x85020, symBinAddr: 0x1000A9D00, symSize: 0x0 }
  - { offsetInCU: 0x4267, offset: 0x259FA, size: 0x8, addend: 0x0, symName: __ZN3thcL28pawn_attacks_white_lookup_c4E, symObjAddr: 0x85040, symBinAddr: 0x1000A9D20, symSize: 0x0 }
  - { offsetInCU: 0x4282, offset: 0x25A15, size: 0x8, addend: 0x0, symName: __ZN3thcL28pawn_attacks_white_lookup_d4E, symObjAddr: 0x85060, symBinAddr: 0x1000A9D40, symSize: 0x0 }
  - { offsetInCU: 0x429D, offset: 0x25A30, size: 0x8, addend: 0x0, symName: __ZN3thcL28pawn_attacks_white_lookup_e4E, symObjAddr: 0x85080, symBinAddr: 0x1000A9D60, symSize: 0x0 }
  - { offsetInCU: 0x42B8, offset: 0x25A4B, size: 0x8, addend: 0x0, symName: __ZN3thcL28pawn_attacks_white_lookup_f4E, symObjAddr: 0x850A0, symBinAddr: 0x1000A9D80, symSize: 0x0 }
  - { offsetInCU: 0x42D3, offset: 0x25A66, size: 0x8, addend: 0x0, symName: __ZN3thcL28pawn_attacks_white_lookup_g4E, symObjAddr: 0x850C0, symBinAddr: 0x1000A9DA0, symSize: 0x0 }
  - { offsetInCU: 0x42EE, offset: 0x25A81, size: 0x8, addend: 0x0, symName: __ZN3thcL28pawn_attacks_white_lookup_h4E, symObjAddr: 0x850E0, symBinAddr: 0x1000A9DC0, symSize: 0x0 }
  - { offsetInCU: 0x4309, offset: 0x25A9C, size: 0x8, addend: 0x0, symName: __ZN3thcL28pawn_attacks_white_lookup_a3E, symObjAddr: 0x85100, symBinAddr: 0x1000A9DE0, symSize: 0x0 }
  - { offsetInCU: 0x4324, offset: 0x25AB7, size: 0x8, addend: 0x0, symName: __ZN3thcL28pawn_attacks_white_lookup_b3E, symObjAddr: 0x85120, symBinAddr: 0x1000A9E00, symSize: 0x0 }
  - { offsetInCU: 0x433F, offset: 0x25AD2, size: 0x8, addend: 0x0, symName: __ZN3thcL28pawn_attacks_white_lookup_c3E, symObjAddr: 0x85140, symBinAddr: 0x1000A9E20, symSize: 0x0 }
  - { offsetInCU: 0x435A, offset: 0x25AED, size: 0x8, addend: 0x0, symName: __ZN3thcL28pawn_attacks_white_lookup_d3E, symObjAddr: 0x85160, symBinAddr: 0x1000A9E40, symSize: 0x0 }
  - { offsetInCU: 0x4375, offset: 0x25B08, size: 0x8, addend: 0x0, symName: __ZN3thcL28pawn_attacks_white_lookup_e3E, symObjAddr: 0x85180, symBinAddr: 0x1000A9E60, symSize: 0x0 }
  - { offsetInCU: 0x4390, offset: 0x25B23, size: 0x8, addend: 0x0, symName: __ZN3thcL28pawn_attacks_white_lookup_f3E, symObjAddr: 0x851A0, symBinAddr: 0x1000A9E80, symSize: 0x0 }
  - { offsetInCU: 0x43AB, offset: 0x25B3E, size: 0x8, addend: 0x0, symName: __ZN3thcL28pawn_attacks_white_lookup_g3E, symObjAddr: 0x851C0, symBinAddr: 0x1000A9EA0, symSize: 0x0 }
  - { offsetInCU: 0x43C6, offset: 0x25B59, size: 0x8, addend: 0x0, symName: __ZN3thcL28pawn_attacks_white_lookup_h3E, symObjAddr: 0x851E0, symBinAddr: 0x1000A9EC0, symSize: 0x0 }
  - { offsetInCU: 0x43E1, offset: 0x25B74, size: 0x8, addend: 0x0, symName: __ZN3thcL28pawn_attacks_white_lookup_a2E, symObjAddr: 0x85200, symBinAddr: 0x1000A9EE0, symSize: 0x0 }
  - { offsetInCU: 0x43FC, offset: 0x25B8F, size: 0x8, addend: 0x0, symName: __ZN3thcL28pawn_attacks_white_lookup_b2E, symObjAddr: 0x85220, symBinAddr: 0x1000A9F00, symSize: 0x0 }
  - { offsetInCU: 0x4417, offset: 0x25BAA, size: 0x8, addend: 0x0, symName: __ZN3thcL28pawn_attacks_white_lookup_c2E, symObjAddr: 0x85240, symBinAddr: 0x1000A9F20, symSize: 0x0 }
  - { offsetInCU: 0x4432, offset: 0x25BC5, size: 0x8, addend: 0x0, symName: __ZN3thcL28pawn_attacks_white_lookup_d2E, symObjAddr: 0x85260, symBinAddr: 0x1000A9F40, symSize: 0x0 }
  - { offsetInCU: 0x444D, offset: 0x25BE0, size: 0x8, addend: 0x0, symName: __ZN3thcL28pawn_attacks_white_lookup_e2E, symObjAddr: 0x85280, symBinAddr: 0x1000A9F60, symSize: 0x0 }
  - { offsetInCU: 0x4468, offset: 0x25BFB, size: 0x8, addend: 0x0, symName: __ZN3thcL28pawn_attacks_white_lookup_f2E, symObjAddr: 0x852A0, symBinAddr: 0x1000A9F80, symSize: 0x0 }
  - { offsetInCU: 0x4483, offset: 0x25C16, size: 0x8, addend: 0x0, symName: __ZN3thcL28pawn_attacks_white_lookup_g2E, symObjAddr: 0x852C0, symBinAddr: 0x1000A9FA0, symSize: 0x0 }
  - { offsetInCU: 0x449E, offset: 0x25C31, size: 0x8, addend: 0x0, symName: __ZN3thcL28pawn_attacks_white_lookup_h2E, symObjAddr: 0x852E0, symBinAddr: 0x1000A9FC0, symSize: 0x0 }
  - { offsetInCU: 0x44B9, offset: 0x25C4C, size: 0x8, addend: 0x0, symName: __ZN3thcL28pawn_attacks_white_lookup_a1E, symObjAddr: 0x85300, symBinAddr: 0x1000A9FE0, symSize: 0x0 }
  - { offsetInCU: 0x44D4, offset: 0x25C67, size: 0x8, addend: 0x0, symName: __ZN3thcL28pawn_attacks_white_lookup_b1E, symObjAddr: 0x85320, symBinAddr: 0x1000AA000, symSize: 0x0 }
  - { offsetInCU: 0x44EF, offset: 0x25C82, size: 0x8, addend: 0x0, symName: __ZN3thcL28pawn_attacks_white_lookup_c1E, symObjAddr: 0x85340, symBinAddr: 0x1000AA020, symSize: 0x0 }
  - { offsetInCU: 0x450A, offset: 0x25C9D, size: 0x8, addend: 0x0, symName: __ZN3thcL28pawn_attacks_white_lookup_d1E, symObjAddr: 0x85360, symBinAddr: 0x1000AA040, symSize: 0x0 }
  - { offsetInCU: 0x4525, offset: 0x25CB8, size: 0x8, addend: 0x0, symName: __ZN3thcL28pawn_attacks_white_lookup_e1E, symObjAddr: 0x85380, symBinAddr: 0x1000AA060, symSize: 0x0 }
  - { offsetInCU: 0x4540, offset: 0x25CD3, size: 0x8, addend: 0x0, symName: __ZN3thcL28pawn_attacks_white_lookup_f1E, symObjAddr: 0x853A0, symBinAddr: 0x1000AA080, symSize: 0x0 }
  - { offsetInCU: 0x455B, offset: 0x25CEE, size: 0x8, addend: 0x0, symName: __ZN3thcL28pawn_attacks_white_lookup_g1E, symObjAddr: 0x853C0, symBinAddr: 0x1000AA0A0, symSize: 0x0 }
  - { offsetInCU: 0x4576, offset: 0x25D09, size: 0x8, addend: 0x0, symName: __ZN3thcL28pawn_attacks_white_lookup_h1E, symObjAddr: 0x853E0, symBinAddr: 0x1000AA0C0, symSize: 0x0 }
  - { offsetInCU: 0x4591, offset: 0x25D24, size: 0x8, addend: 0x0, symName: __ZN3thcL28pawn_attacks_black_lookup_a8E, symObjAddr: 0x85400, symBinAddr: 0x1000AA0E0, symSize: 0x0 }
  - { offsetInCU: 0x45AC, offset: 0x25D3F, size: 0x8, addend: 0x0, symName: __ZN3thcL28pawn_attacks_black_lookup_b8E, symObjAddr: 0x85420, symBinAddr: 0x1000AA100, symSize: 0x0 }
  - { offsetInCU: 0x45C7, offset: 0x25D5A, size: 0x8, addend: 0x0, symName: __ZN3thcL28pawn_attacks_black_lookup_c8E, symObjAddr: 0x85440, symBinAddr: 0x1000AA120, symSize: 0x0 }
  - { offsetInCU: 0x45E2, offset: 0x25D75, size: 0x8, addend: 0x0, symName: __ZN3thcL28pawn_attacks_black_lookup_d8E, symObjAddr: 0x85460, symBinAddr: 0x1000AA140, symSize: 0x0 }
  - { offsetInCU: 0x45FD, offset: 0x25D90, size: 0x8, addend: 0x0, symName: __ZN3thcL28pawn_attacks_black_lookup_e8E, symObjAddr: 0x85480, symBinAddr: 0x1000AA160, symSize: 0x0 }
  - { offsetInCU: 0x4618, offset: 0x25DAB, size: 0x8, addend: 0x0, symName: __ZN3thcL28pawn_attacks_black_lookup_f8E, symObjAddr: 0x854A0, symBinAddr: 0x1000AA180, symSize: 0x0 }
  - { offsetInCU: 0x4633, offset: 0x25DC6, size: 0x8, addend: 0x0, symName: __ZN3thcL28pawn_attacks_black_lookup_g8E, symObjAddr: 0x854C0, symBinAddr: 0x1000AA1A0, symSize: 0x0 }
  - { offsetInCU: 0x464E, offset: 0x25DE1, size: 0x8, addend: 0x0, symName: __ZN3thcL28pawn_attacks_black_lookup_h8E, symObjAddr: 0x854E0, symBinAddr: 0x1000AA1C0, symSize: 0x0 }
  - { offsetInCU: 0x4669, offset: 0x25DFC, size: 0x8, addend: 0x0, symName: __ZN3thcL28pawn_attacks_black_lookup_a7E, symObjAddr: 0x85500, symBinAddr: 0x1000AA1E0, symSize: 0x0 }
  - { offsetInCU: 0x4684, offset: 0x25E17, size: 0x8, addend: 0x0, symName: __ZN3thcL28pawn_attacks_black_lookup_b7E, symObjAddr: 0x85520, symBinAddr: 0x1000AA200, symSize: 0x0 }
  - { offsetInCU: 0x469F, offset: 0x25E32, size: 0x8, addend: 0x0, symName: __ZN3thcL28pawn_attacks_black_lookup_c7E, symObjAddr: 0x85540, symBinAddr: 0x1000AA220, symSize: 0x0 }
  - { offsetInCU: 0x46BA, offset: 0x25E4D, size: 0x8, addend: 0x0, symName: __ZN3thcL28pawn_attacks_black_lookup_d7E, symObjAddr: 0x85560, symBinAddr: 0x1000AA240, symSize: 0x0 }
  - { offsetInCU: 0x46D5, offset: 0x25E68, size: 0x8, addend: 0x0, symName: __ZN3thcL28pawn_attacks_black_lookup_e7E, symObjAddr: 0x85580, symBinAddr: 0x1000AA260, symSize: 0x0 }
  - { offsetInCU: 0x46F0, offset: 0x25E83, size: 0x8, addend: 0x0, symName: __ZN3thcL28pawn_attacks_black_lookup_f7E, symObjAddr: 0x855A0, symBinAddr: 0x1000AA280, symSize: 0x0 }
  - { offsetInCU: 0x470B, offset: 0x25E9E, size: 0x8, addend: 0x0, symName: __ZN3thcL28pawn_attacks_black_lookup_g7E, symObjAddr: 0x855C0, symBinAddr: 0x1000AA2A0, symSize: 0x0 }
  - { offsetInCU: 0x4726, offset: 0x25EB9, size: 0x8, addend: 0x0, symName: __ZN3thcL28pawn_attacks_black_lookup_h7E, symObjAddr: 0x855E0, symBinAddr: 0x1000AA2C0, symSize: 0x0 }
  - { offsetInCU: 0x4741, offset: 0x25ED4, size: 0x8, addend: 0x0, symName: __ZN3thcL28pawn_attacks_black_lookup_a6E, symObjAddr: 0x85600, symBinAddr: 0x1000AA2E0, symSize: 0x0 }
  - { offsetInCU: 0x475C, offset: 0x25EEF, size: 0x8, addend: 0x0, symName: __ZN3thcL28pawn_attacks_black_lookup_b6E, symObjAddr: 0x85620, symBinAddr: 0x1000AA300, symSize: 0x0 }
  - { offsetInCU: 0x4777, offset: 0x25F0A, size: 0x8, addend: 0x0, symName: __ZN3thcL28pawn_attacks_black_lookup_c6E, symObjAddr: 0x85640, symBinAddr: 0x1000AA320, symSize: 0x0 }
  - { offsetInCU: 0x4792, offset: 0x25F25, size: 0x8, addend: 0x0, symName: __ZN3thcL28pawn_attacks_black_lookup_d6E, symObjAddr: 0x85660, symBinAddr: 0x1000AA340, symSize: 0x0 }
  - { offsetInCU: 0x47AD, offset: 0x25F40, size: 0x8, addend: 0x0, symName: __ZN3thcL28pawn_attacks_black_lookup_e6E, symObjAddr: 0x85680, symBinAddr: 0x1000AA360, symSize: 0x0 }
  - { offsetInCU: 0x47C8, offset: 0x25F5B, size: 0x8, addend: 0x0, symName: __ZN3thcL28pawn_attacks_black_lookup_f6E, symObjAddr: 0x856A0, symBinAddr: 0x1000AA380, symSize: 0x0 }
  - { offsetInCU: 0x47E3, offset: 0x25F76, size: 0x8, addend: 0x0, symName: __ZN3thcL28pawn_attacks_black_lookup_g6E, symObjAddr: 0x856C0, symBinAddr: 0x1000AA3A0, symSize: 0x0 }
  - { offsetInCU: 0x47FE, offset: 0x25F91, size: 0x8, addend: 0x0, symName: __ZN3thcL28pawn_attacks_black_lookup_h6E, symObjAddr: 0x856E0, symBinAddr: 0x1000AA3C0, symSize: 0x0 }
  - { offsetInCU: 0x4819, offset: 0x25FAC, size: 0x8, addend: 0x0, symName: __ZN3thcL28pawn_attacks_black_lookup_a5E, symObjAddr: 0x85700, symBinAddr: 0x1000AA3E0, symSize: 0x0 }
  - { offsetInCU: 0x4834, offset: 0x25FC7, size: 0x8, addend: 0x0, symName: __ZN3thcL28pawn_attacks_black_lookup_b5E, symObjAddr: 0x85720, symBinAddr: 0x1000AA400, symSize: 0x0 }
  - { offsetInCU: 0x484F, offset: 0x25FE2, size: 0x8, addend: 0x0, symName: __ZN3thcL28pawn_attacks_black_lookup_c5E, symObjAddr: 0x85740, symBinAddr: 0x1000AA420, symSize: 0x0 }
  - { offsetInCU: 0x486A, offset: 0x25FFD, size: 0x8, addend: 0x0, symName: __ZN3thcL28pawn_attacks_black_lookup_d5E, symObjAddr: 0x85760, symBinAddr: 0x1000AA440, symSize: 0x0 }
  - { offsetInCU: 0x4885, offset: 0x26018, size: 0x8, addend: 0x0, symName: __ZN3thcL28pawn_attacks_black_lookup_e5E, symObjAddr: 0x85780, symBinAddr: 0x1000AA460, symSize: 0x0 }
  - { offsetInCU: 0x48A0, offset: 0x26033, size: 0x8, addend: 0x0, symName: __ZN3thcL28pawn_attacks_black_lookup_f5E, symObjAddr: 0x857A0, symBinAddr: 0x1000AA480, symSize: 0x0 }
  - { offsetInCU: 0x48BB, offset: 0x2604E, size: 0x8, addend: 0x0, symName: __ZN3thcL28pawn_attacks_black_lookup_g5E, symObjAddr: 0x857C0, symBinAddr: 0x1000AA4A0, symSize: 0x0 }
  - { offsetInCU: 0x48D6, offset: 0x26069, size: 0x8, addend: 0x0, symName: __ZN3thcL28pawn_attacks_black_lookup_h5E, symObjAddr: 0x857E0, symBinAddr: 0x1000AA4C0, symSize: 0x0 }
  - { offsetInCU: 0x48F1, offset: 0x26084, size: 0x8, addend: 0x0, symName: __ZN3thcL28pawn_attacks_black_lookup_a4E, symObjAddr: 0x85800, symBinAddr: 0x1000AA4E0, symSize: 0x0 }
  - { offsetInCU: 0x490C, offset: 0x2609F, size: 0x8, addend: 0x0, symName: __ZN3thcL28pawn_attacks_black_lookup_b4E, symObjAddr: 0x85820, symBinAddr: 0x1000AA500, symSize: 0x0 }
  - { offsetInCU: 0x4927, offset: 0x260BA, size: 0x8, addend: 0x0, symName: __ZN3thcL28pawn_attacks_black_lookup_c4E, symObjAddr: 0x85840, symBinAddr: 0x1000AA520, symSize: 0x0 }
  - { offsetInCU: 0x4942, offset: 0x260D5, size: 0x8, addend: 0x0, symName: __ZN3thcL28pawn_attacks_black_lookup_d4E, symObjAddr: 0x85860, symBinAddr: 0x1000AA540, symSize: 0x0 }
  - { offsetInCU: 0x495D, offset: 0x260F0, size: 0x8, addend: 0x0, symName: __ZN3thcL28pawn_attacks_black_lookup_e4E, symObjAddr: 0x85880, symBinAddr: 0x1000AA560, symSize: 0x0 }
  - { offsetInCU: 0x4978, offset: 0x2610B, size: 0x8, addend: 0x0, symName: __ZN3thcL28pawn_attacks_black_lookup_f4E, symObjAddr: 0x858A0, symBinAddr: 0x1000AA580, symSize: 0x0 }
  - { offsetInCU: 0x4993, offset: 0x26126, size: 0x8, addend: 0x0, symName: __ZN3thcL28pawn_attacks_black_lookup_g4E, symObjAddr: 0x858C0, symBinAddr: 0x1000AA5A0, symSize: 0x0 }
  - { offsetInCU: 0x49AE, offset: 0x26141, size: 0x8, addend: 0x0, symName: __ZN3thcL28pawn_attacks_black_lookup_h4E, symObjAddr: 0x858E0, symBinAddr: 0x1000AA5C0, symSize: 0x0 }
  - { offsetInCU: 0x49C9, offset: 0x2615C, size: 0x8, addend: 0x0, symName: __ZN3thcL28pawn_attacks_black_lookup_a3E, symObjAddr: 0x85900, symBinAddr: 0x1000AA5E0, symSize: 0x0 }
  - { offsetInCU: 0x49E4, offset: 0x26177, size: 0x8, addend: 0x0, symName: __ZN3thcL28pawn_attacks_black_lookup_b3E, symObjAddr: 0x85920, symBinAddr: 0x1000AA600, symSize: 0x0 }
  - { offsetInCU: 0x49FF, offset: 0x26192, size: 0x8, addend: 0x0, symName: __ZN3thcL28pawn_attacks_black_lookup_c3E, symObjAddr: 0x85940, symBinAddr: 0x1000AA620, symSize: 0x0 }
  - { offsetInCU: 0x4A1A, offset: 0x261AD, size: 0x8, addend: 0x0, symName: __ZN3thcL28pawn_attacks_black_lookup_d3E, symObjAddr: 0x85960, symBinAddr: 0x1000AA640, symSize: 0x0 }
  - { offsetInCU: 0x4A35, offset: 0x261C8, size: 0x8, addend: 0x0, symName: __ZN3thcL28pawn_attacks_black_lookup_e3E, symObjAddr: 0x85980, symBinAddr: 0x1000AA660, symSize: 0x0 }
  - { offsetInCU: 0x4A50, offset: 0x261E3, size: 0x8, addend: 0x0, symName: __ZN3thcL28pawn_attacks_black_lookup_f3E, symObjAddr: 0x859A0, symBinAddr: 0x1000AA680, symSize: 0x0 }
  - { offsetInCU: 0x4A6B, offset: 0x261FE, size: 0x8, addend: 0x0, symName: __ZN3thcL28pawn_attacks_black_lookup_g3E, symObjAddr: 0x859C0, symBinAddr: 0x1000AA6A0, symSize: 0x0 }
  - { offsetInCU: 0x4A86, offset: 0x26219, size: 0x8, addend: 0x0, symName: __ZN3thcL28pawn_attacks_black_lookup_h3E, symObjAddr: 0x859E0, symBinAddr: 0x1000AA6C0, symSize: 0x0 }
  - { offsetInCU: 0x4AA1, offset: 0x26234, size: 0x8, addend: 0x0, symName: __ZN3thcL28pawn_attacks_black_lookup_a2E, symObjAddr: 0x85A00, symBinAddr: 0x1000AA6E0, symSize: 0x0 }
  - { offsetInCU: 0x4ABC, offset: 0x2624F, size: 0x8, addend: 0x0, symName: __ZN3thcL28pawn_attacks_black_lookup_b2E, symObjAddr: 0x85A20, symBinAddr: 0x1000AA700, symSize: 0x0 }
  - { offsetInCU: 0x4AD7, offset: 0x2626A, size: 0x8, addend: 0x0, symName: __ZN3thcL28pawn_attacks_black_lookup_c2E, symObjAddr: 0x85A40, symBinAddr: 0x1000AA720, symSize: 0x0 }
  - { offsetInCU: 0x4AF2, offset: 0x26285, size: 0x8, addend: 0x0, symName: __ZN3thcL28pawn_attacks_black_lookup_d2E, symObjAddr: 0x85A60, symBinAddr: 0x1000AA740, symSize: 0x0 }
  - { offsetInCU: 0x4B0D, offset: 0x262A0, size: 0x8, addend: 0x0, symName: __ZN3thcL28pawn_attacks_black_lookup_e2E, symObjAddr: 0x85A80, symBinAddr: 0x1000AA760, symSize: 0x0 }
  - { offsetInCU: 0x4B28, offset: 0x262BB, size: 0x8, addend: 0x0, symName: __ZN3thcL28pawn_attacks_black_lookup_f2E, symObjAddr: 0x85AA0, symBinAddr: 0x1000AA780, symSize: 0x0 }
  - { offsetInCU: 0x4B43, offset: 0x262D6, size: 0x8, addend: 0x0, symName: __ZN3thcL28pawn_attacks_black_lookup_g2E, symObjAddr: 0x85AC0, symBinAddr: 0x1000AA7A0, symSize: 0x0 }
  - { offsetInCU: 0x4B5E, offset: 0x262F1, size: 0x8, addend: 0x0, symName: __ZN3thcL28pawn_attacks_black_lookup_h2E, symObjAddr: 0x85AE0, symBinAddr: 0x1000AA7C0, symSize: 0x0 }
  - { offsetInCU: 0x4B79, offset: 0x2630C, size: 0x8, addend: 0x0, symName: __ZN3thcL28pawn_attacks_black_lookup_a1E, symObjAddr: 0x85B00, symBinAddr: 0x1000AA7E0, symSize: 0x0 }
  - { offsetInCU: 0x4B94, offset: 0x26327, size: 0x8, addend: 0x0, symName: __ZN3thcL28pawn_attacks_black_lookup_b1E, symObjAddr: 0x85B20, symBinAddr: 0x1000AA800, symSize: 0x0 }
  - { offsetInCU: 0x4BAF, offset: 0x26342, size: 0x8, addend: 0x0, symName: __ZN3thcL28pawn_attacks_black_lookup_c1E, symObjAddr: 0x85B40, symBinAddr: 0x1000AA820, symSize: 0x0 }
  - { offsetInCU: 0x4BCA, offset: 0x2635D, size: 0x8, addend: 0x0, symName: __ZN3thcL28pawn_attacks_black_lookup_d1E, symObjAddr: 0x85B60, symBinAddr: 0x1000AA840, symSize: 0x0 }
  - { offsetInCU: 0x4BE5, offset: 0x26378, size: 0x8, addend: 0x0, symName: __ZN3thcL28pawn_attacks_black_lookup_e1E, symObjAddr: 0x85B80, symBinAddr: 0x1000AA860, symSize: 0x0 }
  - { offsetInCU: 0x4C00, offset: 0x26393, size: 0x8, addend: 0x0, symName: __ZN3thcL28pawn_attacks_black_lookup_f1E, symObjAddr: 0x85BA0, symBinAddr: 0x1000AA880, symSize: 0x0 }
  - { offsetInCU: 0x4C1B, offset: 0x263AE, size: 0x8, addend: 0x0, symName: __ZN3thcL28pawn_attacks_black_lookup_g1E, symObjAddr: 0x85BC0, symBinAddr: 0x1000AA8A0, symSize: 0x0 }
  - { offsetInCU: 0x4C36, offset: 0x263C9, size: 0x8, addend: 0x0, symName: __ZN3thcL28pawn_attacks_black_lookup_h1E, symObjAddr: 0x85BE0, symBinAddr: 0x1000AA8C0, symSize: 0x0 }
  - { offsetInCU: 0x4C51, offset: 0x263E4, size: 0x8, addend: 0x0, symName: __ZN3thcL23attacks_white_lookup_a8E, symObjAddr: 0x85C00, symBinAddr: 0x1000AA8E0, symSize: 0x0 }
  - { offsetInCU: 0x4C6C, offset: 0x263FF, size: 0x8, addend: 0x0, symName: __ZN3thcL23attacks_white_lookup_b8E, symObjAddr: 0x85C60, symBinAddr: 0x1000AA940, symSize: 0x0 }
  - { offsetInCU: 0x4C87, offset: 0x2641A, size: 0x8, addend: 0x0, symName: __ZN3thcL23attacks_white_lookup_c8E, symObjAddr: 0x85CC0, symBinAddr: 0x1000AA9A0, symSize: 0x0 }
  - { offsetInCU: 0x4CA2, offset: 0x26435, size: 0x8, addend: 0x0, symName: __ZN3thcL23attacks_white_lookup_d8E, symObjAddr: 0x85D20, symBinAddr: 0x1000AAA00, symSize: 0x0 }
  - { offsetInCU: 0x4CBD, offset: 0x26450, size: 0x8, addend: 0x0, symName: __ZN3thcL23attacks_white_lookup_e8E, symObjAddr: 0x85D80, symBinAddr: 0x1000AAA60, symSize: 0x0 }
  - { offsetInCU: 0x4CD8, offset: 0x2646B, size: 0x8, addend: 0x0, symName: __ZN3thcL23attacks_white_lookup_f8E, symObjAddr: 0x85DE0, symBinAddr: 0x1000AAAC0, symSize: 0x0 }
  - { offsetInCU: 0x4CF3, offset: 0x26486, size: 0x8, addend: 0x0, symName: __ZN3thcL23attacks_white_lookup_g8E, symObjAddr: 0x85E40, symBinAddr: 0x1000AAB20, symSize: 0x0 }
  - { offsetInCU: 0x4D0E, offset: 0x264A1, size: 0x8, addend: 0x0, symName: __ZN3thcL23attacks_white_lookup_h8E, symObjAddr: 0x85EA0, symBinAddr: 0x1000AAB80, symSize: 0x0 }
  - { offsetInCU: 0x4D29, offset: 0x264BC, size: 0x8, addend: 0x0, symName: __ZN3thcL23attacks_white_lookup_a7E, symObjAddr: 0x85F00, symBinAddr: 0x1000AABE0, symSize: 0x0 }
  - { offsetInCU: 0x4D44, offset: 0x264D7, size: 0x8, addend: 0x0, symName: __ZN3thcL23attacks_white_lookup_b7E, symObjAddr: 0x85F60, symBinAddr: 0x1000AAC40, symSize: 0x0 }
  - { offsetInCU: 0x4D5F, offset: 0x264F2, size: 0x8, addend: 0x0, symName: __ZN3thcL23attacks_white_lookup_c7E, symObjAddr: 0x85FC0, symBinAddr: 0x1000AACA0, symSize: 0x0 }
  - { offsetInCU: 0x4D7A, offset: 0x2650D, size: 0x8, addend: 0x0, symName: __ZN3thcL23attacks_white_lookup_d7E, symObjAddr: 0x86020, symBinAddr: 0x1000AAD00, symSize: 0x0 }
  - { offsetInCU: 0x4D95, offset: 0x26528, size: 0x8, addend: 0x0, symName: __ZN3thcL23attacks_white_lookup_e7E, symObjAddr: 0x86080, symBinAddr: 0x1000AAD60, symSize: 0x0 }
  - { offsetInCU: 0x4DB0, offset: 0x26543, size: 0x8, addend: 0x0, symName: __ZN3thcL23attacks_white_lookup_f7E, symObjAddr: 0x860E0, symBinAddr: 0x1000AADC0, symSize: 0x0 }
  - { offsetInCU: 0x4DCB, offset: 0x2655E, size: 0x8, addend: 0x0, symName: __ZN3thcL23attacks_white_lookup_g7E, symObjAddr: 0x86140, symBinAddr: 0x1000AAE20, symSize: 0x0 }
  - { offsetInCU: 0x4DE6, offset: 0x26579, size: 0x8, addend: 0x0, symName: __ZN3thcL23attacks_white_lookup_h7E, symObjAddr: 0x861A0, symBinAddr: 0x1000AAE80, symSize: 0x0 }
  - { offsetInCU: 0x4E01, offset: 0x26594, size: 0x8, addend: 0x0, symName: __ZN3thcL23attacks_white_lookup_a6E, symObjAddr: 0x86200, symBinAddr: 0x1000AAEE0, symSize: 0x0 }
  - { offsetInCU: 0x4E1C, offset: 0x265AF, size: 0x8, addend: 0x0, symName: __ZN3thcL23attacks_white_lookup_b6E, symObjAddr: 0x86260, symBinAddr: 0x1000AAF40, symSize: 0x0 }
  - { offsetInCU: 0x4E37, offset: 0x265CA, size: 0x8, addend: 0x0, symName: __ZN3thcL23attacks_white_lookup_c6E, symObjAddr: 0x862C0, symBinAddr: 0x1000AAFA0, symSize: 0x0 }
  - { offsetInCU: 0x4E52, offset: 0x265E5, size: 0x8, addend: 0x0, symName: __ZN3thcL23attacks_white_lookup_d6E, symObjAddr: 0x86320, symBinAddr: 0x1000AB000, symSize: 0x0 }
  - { offsetInCU: 0x4E6D, offset: 0x26600, size: 0x8, addend: 0x0, symName: __ZN3thcL23attacks_white_lookup_e6E, symObjAddr: 0x86380, symBinAddr: 0x1000AB060, symSize: 0x0 }
  - { offsetInCU: 0x4E88, offset: 0x2661B, size: 0x8, addend: 0x0, symName: __ZN3thcL23attacks_white_lookup_f6E, symObjAddr: 0x863E0, symBinAddr: 0x1000AB0C0, symSize: 0x0 }
  - { offsetInCU: 0x4EA3, offset: 0x26636, size: 0x8, addend: 0x0, symName: __ZN3thcL23attacks_white_lookup_g6E, symObjAddr: 0x86440, symBinAddr: 0x1000AB120, symSize: 0x0 }
  - { offsetInCU: 0x4EBE, offset: 0x26651, size: 0x8, addend: 0x0, symName: __ZN3thcL23attacks_white_lookup_h6E, symObjAddr: 0x864A0, symBinAddr: 0x1000AB180, symSize: 0x0 }
  - { offsetInCU: 0x4ED9, offset: 0x2666C, size: 0x8, addend: 0x0, symName: __ZN3thcL23attacks_white_lookup_a5E, symObjAddr: 0x86500, symBinAddr: 0x1000AB1E0, symSize: 0x0 }
  - { offsetInCU: 0x4EF4, offset: 0x26687, size: 0x8, addend: 0x0, symName: __ZN3thcL23attacks_white_lookup_b5E, symObjAddr: 0x86560, symBinAddr: 0x1000AB240, symSize: 0x0 }
  - { offsetInCU: 0x4F0F, offset: 0x266A2, size: 0x8, addend: 0x0, symName: __ZN3thcL23attacks_white_lookup_c5E, symObjAddr: 0x865C0, symBinAddr: 0x1000AB2A0, symSize: 0x0 }
  - { offsetInCU: 0x4F2A, offset: 0x266BD, size: 0x8, addend: 0x0, symName: __ZN3thcL23attacks_white_lookup_d5E, symObjAddr: 0x86620, symBinAddr: 0x1000AB300, symSize: 0x0 }
  - { offsetInCU: 0x4F45, offset: 0x266D8, size: 0x8, addend: 0x0, symName: __ZN3thcL23attacks_white_lookup_e5E, symObjAddr: 0x86680, symBinAddr: 0x1000AB360, symSize: 0x0 }
  - { offsetInCU: 0x4F60, offset: 0x266F3, size: 0x8, addend: 0x0, symName: __ZN3thcL23attacks_white_lookup_f5E, symObjAddr: 0x866E0, symBinAddr: 0x1000AB3C0, symSize: 0x0 }
  - { offsetInCU: 0x4F7B, offset: 0x2670E, size: 0x8, addend: 0x0, symName: __ZN3thcL23attacks_white_lookup_g5E, symObjAddr: 0x86740, symBinAddr: 0x1000AB420, symSize: 0x0 }
  - { offsetInCU: 0x4F96, offset: 0x26729, size: 0x8, addend: 0x0, symName: __ZN3thcL23attacks_white_lookup_h5E, symObjAddr: 0x867A0, symBinAddr: 0x1000AB480, symSize: 0x0 }
  - { offsetInCU: 0x4FB1, offset: 0x26744, size: 0x8, addend: 0x0, symName: __ZN3thcL23attacks_white_lookup_a4E, symObjAddr: 0x86800, symBinAddr: 0x1000AB4E0, symSize: 0x0 }
  - { offsetInCU: 0x4FCC, offset: 0x2675F, size: 0x8, addend: 0x0, symName: __ZN3thcL23attacks_white_lookup_b4E, symObjAddr: 0x86860, symBinAddr: 0x1000AB540, symSize: 0x0 }
  - { offsetInCU: 0x4FE7, offset: 0x2677A, size: 0x8, addend: 0x0, symName: __ZN3thcL23attacks_white_lookup_c4E, symObjAddr: 0x868C0, symBinAddr: 0x1000AB5A0, symSize: 0x0 }
  - { offsetInCU: 0x5002, offset: 0x26795, size: 0x8, addend: 0x0, symName: __ZN3thcL23attacks_white_lookup_d4E, symObjAddr: 0x86920, symBinAddr: 0x1000AB600, symSize: 0x0 }
  - { offsetInCU: 0x501D, offset: 0x267B0, size: 0x8, addend: 0x0, symName: __ZN3thcL23attacks_white_lookup_e4E, symObjAddr: 0x86980, symBinAddr: 0x1000AB660, symSize: 0x0 }
  - { offsetInCU: 0x5038, offset: 0x267CB, size: 0x8, addend: 0x0, symName: __ZN3thcL23attacks_white_lookup_f4E, symObjAddr: 0x869E0, symBinAddr: 0x1000AB6C0, symSize: 0x0 }
  - { offsetInCU: 0x5053, offset: 0x267E6, size: 0x8, addend: 0x0, symName: __ZN3thcL23attacks_white_lookup_g4E, symObjAddr: 0x86A40, symBinAddr: 0x1000AB720, symSize: 0x0 }
  - { offsetInCU: 0x506E, offset: 0x26801, size: 0x8, addend: 0x0, symName: __ZN3thcL23attacks_white_lookup_h4E, symObjAddr: 0x86AA0, symBinAddr: 0x1000AB780, symSize: 0x0 }
  - { offsetInCU: 0x5089, offset: 0x2681C, size: 0x8, addend: 0x0, symName: __ZN3thcL23attacks_white_lookup_a3E, symObjAddr: 0x86B00, symBinAddr: 0x1000AB7E0, symSize: 0x0 }
  - { offsetInCU: 0x50A4, offset: 0x26837, size: 0x8, addend: 0x0, symName: __ZN3thcL23attacks_white_lookup_b3E, symObjAddr: 0x86B60, symBinAddr: 0x1000AB840, symSize: 0x0 }
  - { offsetInCU: 0x50BF, offset: 0x26852, size: 0x8, addend: 0x0, symName: __ZN3thcL23attacks_white_lookup_c3E, symObjAddr: 0x86BC0, symBinAddr: 0x1000AB8A0, symSize: 0x0 }
  - { offsetInCU: 0x50DA, offset: 0x2686D, size: 0x8, addend: 0x0, symName: __ZN3thcL23attacks_white_lookup_d3E, symObjAddr: 0x86C20, symBinAddr: 0x1000AB900, symSize: 0x0 }
  - { offsetInCU: 0x50F5, offset: 0x26888, size: 0x8, addend: 0x0, symName: __ZN3thcL23attacks_white_lookup_e3E, symObjAddr: 0x86C80, symBinAddr: 0x1000AB960, symSize: 0x0 }
  - { offsetInCU: 0x5110, offset: 0x268A3, size: 0x8, addend: 0x0, symName: __ZN3thcL23attacks_white_lookup_f3E, symObjAddr: 0x86CE0, symBinAddr: 0x1000AB9C0, symSize: 0x0 }
  - { offsetInCU: 0x512B, offset: 0x268BE, size: 0x8, addend: 0x0, symName: __ZN3thcL23attacks_white_lookup_g3E, symObjAddr: 0x86D40, symBinAddr: 0x1000ABA20, symSize: 0x0 }
  - { offsetInCU: 0x5146, offset: 0x268D9, size: 0x8, addend: 0x0, symName: __ZN3thcL23attacks_white_lookup_h3E, symObjAddr: 0x86DA0, symBinAddr: 0x1000ABA80, symSize: 0x0 }
  - { offsetInCU: 0x5161, offset: 0x268F4, size: 0x8, addend: 0x0, symName: __ZN3thcL23attacks_white_lookup_a2E, symObjAddr: 0x86E00, symBinAddr: 0x1000ABAE0, symSize: 0x0 }
  - { offsetInCU: 0x517C, offset: 0x2690F, size: 0x8, addend: 0x0, symName: __ZN3thcL23attacks_white_lookup_b2E, symObjAddr: 0x86E60, symBinAddr: 0x1000ABB40, symSize: 0x0 }
  - { offsetInCU: 0x5197, offset: 0x2692A, size: 0x8, addend: 0x0, symName: __ZN3thcL23attacks_white_lookup_c2E, symObjAddr: 0x86EC0, symBinAddr: 0x1000ABBA0, symSize: 0x0 }
  - { offsetInCU: 0x51B2, offset: 0x26945, size: 0x8, addend: 0x0, symName: __ZN3thcL23attacks_white_lookup_d2E, symObjAddr: 0x86F20, symBinAddr: 0x1000ABC00, symSize: 0x0 }
  - { offsetInCU: 0x51CD, offset: 0x26960, size: 0x8, addend: 0x0, symName: __ZN3thcL23attacks_white_lookup_e2E, symObjAddr: 0x86F80, symBinAddr: 0x1000ABC60, symSize: 0x0 }
  - { offsetInCU: 0x51E8, offset: 0x2697B, size: 0x8, addend: 0x0, symName: __ZN3thcL23attacks_white_lookup_f2E, symObjAddr: 0x86FE0, symBinAddr: 0x1000ABCC0, symSize: 0x0 }
  - { offsetInCU: 0x5203, offset: 0x26996, size: 0x8, addend: 0x0, symName: __ZN3thcL23attacks_white_lookup_g2E, symObjAddr: 0x87040, symBinAddr: 0x1000ABD20, symSize: 0x0 }
  - { offsetInCU: 0x521E, offset: 0x269B1, size: 0x8, addend: 0x0, symName: __ZN3thcL23attacks_white_lookup_h2E, symObjAddr: 0x870A0, symBinAddr: 0x1000ABD80, symSize: 0x0 }
  - { offsetInCU: 0x5239, offset: 0x269CC, size: 0x8, addend: 0x0, symName: __ZN3thcL23attacks_white_lookup_a1E, symObjAddr: 0x87100, symBinAddr: 0x1000ABDE0, symSize: 0x0 }
  - { offsetInCU: 0x5254, offset: 0x269E7, size: 0x8, addend: 0x0, symName: __ZN3thcL23attacks_white_lookup_b1E, symObjAddr: 0x87160, symBinAddr: 0x1000ABE40, symSize: 0x0 }
  - { offsetInCU: 0x526F, offset: 0x26A02, size: 0x8, addend: 0x0, symName: __ZN3thcL23attacks_white_lookup_c1E, symObjAddr: 0x871C0, symBinAddr: 0x1000ABEA0, symSize: 0x0 }
  - { offsetInCU: 0x528A, offset: 0x26A1D, size: 0x8, addend: 0x0, symName: __ZN3thcL23attacks_white_lookup_d1E, symObjAddr: 0x87220, symBinAddr: 0x1000ABF00, symSize: 0x0 }
  - { offsetInCU: 0x52A5, offset: 0x26A38, size: 0x8, addend: 0x0, symName: __ZN3thcL23attacks_white_lookup_e1E, symObjAddr: 0x87280, symBinAddr: 0x1000ABF60, symSize: 0x0 }
  - { offsetInCU: 0x52C0, offset: 0x26A53, size: 0x8, addend: 0x0, symName: __ZN3thcL23attacks_white_lookup_f1E, symObjAddr: 0x872E0, symBinAddr: 0x1000ABFC0, symSize: 0x0 }
  - { offsetInCU: 0x52DB, offset: 0x26A6E, size: 0x8, addend: 0x0, symName: __ZN3thcL23attacks_white_lookup_g1E, symObjAddr: 0x87340, symBinAddr: 0x1000AC020, symSize: 0x0 }
  - { offsetInCU: 0x52F6, offset: 0x26A89, size: 0x8, addend: 0x0, symName: __ZN3thcL23attacks_white_lookup_h1E, symObjAddr: 0x873A0, symBinAddr: 0x1000AC080, symSize: 0x0 }
  - { offsetInCU: 0x5311, offset: 0x26AA4, size: 0x8, addend: 0x0, symName: __ZN3thcL23attacks_black_lookup_a8E, symObjAddr: 0x87400, symBinAddr: 0x1000AC0E0, symSize: 0x0 }
  - { offsetInCU: 0x532C, offset: 0x26ABF, size: 0x8, addend: 0x0, symName: __ZN3thcL23attacks_black_lookup_b8E, symObjAddr: 0x87460, symBinAddr: 0x1000AC140, symSize: 0x0 }
  - { offsetInCU: 0x5347, offset: 0x26ADA, size: 0x8, addend: 0x0, symName: __ZN3thcL23attacks_black_lookup_c8E, symObjAddr: 0x874C0, symBinAddr: 0x1000AC1A0, symSize: 0x0 }
  - { offsetInCU: 0x5362, offset: 0x26AF5, size: 0x8, addend: 0x0, symName: __ZN3thcL23attacks_black_lookup_d8E, symObjAddr: 0x87520, symBinAddr: 0x1000AC200, symSize: 0x0 }
  - { offsetInCU: 0x537D, offset: 0x26B10, size: 0x8, addend: 0x0, symName: __ZN3thcL23attacks_black_lookup_e8E, symObjAddr: 0x87580, symBinAddr: 0x1000AC260, symSize: 0x0 }
  - { offsetInCU: 0x5398, offset: 0x26B2B, size: 0x8, addend: 0x0, symName: __ZN3thcL23attacks_black_lookup_f8E, symObjAddr: 0x875E0, symBinAddr: 0x1000AC2C0, symSize: 0x0 }
  - { offsetInCU: 0x53B3, offset: 0x26B46, size: 0x8, addend: 0x0, symName: __ZN3thcL23attacks_black_lookup_g8E, symObjAddr: 0x87640, symBinAddr: 0x1000AC320, symSize: 0x0 }
  - { offsetInCU: 0x53CE, offset: 0x26B61, size: 0x8, addend: 0x0, symName: __ZN3thcL23attacks_black_lookup_h8E, symObjAddr: 0x876A0, symBinAddr: 0x1000AC380, symSize: 0x0 }
  - { offsetInCU: 0x53E9, offset: 0x26B7C, size: 0x8, addend: 0x0, symName: __ZN3thcL23attacks_black_lookup_a7E, symObjAddr: 0x87700, symBinAddr: 0x1000AC3E0, symSize: 0x0 }
  - { offsetInCU: 0x5404, offset: 0x26B97, size: 0x8, addend: 0x0, symName: __ZN3thcL23attacks_black_lookup_b7E, symObjAddr: 0x87760, symBinAddr: 0x1000AC440, symSize: 0x0 }
  - { offsetInCU: 0x541F, offset: 0x26BB2, size: 0x8, addend: 0x0, symName: __ZN3thcL23attacks_black_lookup_c7E, symObjAddr: 0x877C0, symBinAddr: 0x1000AC4A0, symSize: 0x0 }
  - { offsetInCU: 0x543A, offset: 0x26BCD, size: 0x8, addend: 0x0, symName: __ZN3thcL23attacks_black_lookup_d7E, symObjAddr: 0x87820, symBinAddr: 0x1000AC500, symSize: 0x0 }
  - { offsetInCU: 0x5455, offset: 0x26BE8, size: 0x8, addend: 0x0, symName: __ZN3thcL23attacks_black_lookup_e7E, symObjAddr: 0x87880, symBinAddr: 0x1000AC560, symSize: 0x0 }
  - { offsetInCU: 0x5470, offset: 0x26C03, size: 0x8, addend: 0x0, symName: __ZN3thcL23attacks_black_lookup_f7E, symObjAddr: 0x878E0, symBinAddr: 0x1000AC5C0, symSize: 0x0 }
  - { offsetInCU: 0x548B, offset: 0x26C1E, size: 0x8, addend: 0x0, symName: __ZN3thcL23attacks_black_lookup_g7E, symObjAddr: 0x87940, symBinAddr: 0x1000AC620, symSize: 0x0 }
  - { offsetInCU: 0x54A6, offset: 0x26C39, size: 0x8, addend: 0x0, symName: __ZN3thcL23attacks_black_lookup_h7E, symObjAddr: 0x879A0, symBinAddr: 0x1000AC680, symSize: 0x0 }
  - { offsetInCU: 0x54C1, offset: 0x26C54, size: 0x8, addend: 0x0, symName: __ZN3thcL23attacks_black_lookup_a6E, symObjAddr: 0x87A00, symBinAddr: 0x1000AC6E0, symSize: 0x0 }
  - { offsetInCU: 0x54DC, offset: 0x26C6F, size: 0x8, addend: 0x0, symName: __ZN3thcL23attacks_black_lookup_b6E, symObjAddr: 0x87A60, symBinAddr: 0x1000AC740, symSize: 0x0 }
  - { offsetInCU: 0x54F7, offset: 0x26C8A, size: 0x8, addend: 0x0, symName: __ZN3thcL23attacks_black_lookup_c6E, symObjAddr: 0x87AC0, symBinAddr: 0x1000AC7A0, symSize: 0x0 }
  - { offsetInCU: 0x5512, offset: 0x26CA5, size: 0x8, addend: 0x0, symName: __ZN3thcL23attacks_black_lookup_d6E, symObjAddr: 0x87B20, symBinAddr: 0x1000AC800, symSize: 0x0 }
  - { offsetInCU: 0x552D, offset: 0x26CC0, size: 0x8, addend: 0x0, symName: __ZN3thcL23attacks_black_lookup_e6E, symObjAddr: 0x87B80, symBinAddr: 0x1000AC860, symSize: 0x0 }
  - { offsetInCU: 0x5548, offset: 0x26CDB, size: 0x8, addend: 0x0, symName: __ZN3thcL23attacks_black_lookup_f6E, symObjAddr: 0x87BE0, symBinAddr: 0x1000AC8C0, symSize: 0x0 }
  - { offsetInCU: 0x5563, offset: 0x26CF6, size: 0x8, addend: 0x0, symName: __ZN3thcL23attacks_black_lookup_g6E, symObjAddr: 0x87C40, symBinAddr: 0x1000AC920, symSize: 0x0 }
  - { offsetInCU: 0x557E, offset: 0x26D11, size: 0x8, addend: 0x0, symName: __ZN3thcL23attacks_black_lookup_h6E, symObjAddr: 0x87CA0, symBinAddr: 0x1000AC980, symSize: 0x0 }
  - { offsetInCU: 0x5599, offset: 0x26D2C, size: 0x8, addend: 0x0, symName: __ZN3thcL23attacks_black_lookup_a5E, symObjAddr: 0x87D00, symBinAddr: 0x1000AC9E0, symSize: 0x0 }
  - { offsetInCU: 0x55B4, offset: 0x26D47, size: 0x8, addend: 0x0, symName: __ZN3thcL23attacks_black_lookup_b5E, symObjAddr: 0x87D60, symBinAddr: 0x1000ACA40, symSize: 0x0 }
  - { offsetInCU: 0x55CF, offset: 0x26D62, size: 0x8, addend: 0x0, symName: __ZN3thcL23attacks_black_lookup_c5E, symObjAddr: 0x87DC0, symBinAddr: 0x1000ACAA0, symSize: 0x0 }
  - { offsetInCU: 0x55EA, offset: 0x26D7D, size: 0x8, addend: 0x0, symName: __ZN3thcL23attacks_black_lookup_d5E, symObjAddr: 0x87E20, symBinAddr: 0x1000ACB00, symSize: 0x0 }
  - { offsetInCU: 0x5605, offset: 0x26D98, size: 0x8, addend: 0x0, symName: __ZN3thcL23attacks_black_lookup_e5E, symObjAddr: 0x87E80, symBinAddr: 0x1000ACB60, symSize: 0x0 }
  - { offsetInCU: 0x5620, offset: 0x26DB3, size: 0x8, addend: 0x0, symName: __ZN3thcL23attacks_black_lookup_f5E, symObjAddr: 0x87EE0, symBinAddr: 0x1000ACBC0, symSize: 0x0 }
  - { offsetInCU: 0x563B, offset: 0x26DCE, size: 0x8, addend: 0x0, symName: __ZN3thcL23attacks_black_lookup_g5E, symObjAddr: 0x87F40, symBinAddr: 0x1000ACC20, symSize: 0x0 }
  - { offsetInCU: 0x5656, offset: 0x26DE9, size: 0x8, addend: 0x0, symName: __ZN3thcL23attacks_black_lookup_h5E, symObjAddr: 0x87FA0, symBinAddr: 0x1000ACC80, symSize: 0x0 }
  - { offsetInCU: 0x5671, offset: 0x26E04, size: 0x8, addend: 0x0, symName: __ZN3thcL23attacks_black_lookup_a4E, symObjAddr: 0x88000, symBinAddr: 0x1000ACCE0, symSize: 0x0 }
  - { offsetInCU: 0x568C, offset: 0x26E1F, size: 0x8, addend: 0x0, symName: __ZN3thcL23attacks_black_lookup_b4E, symObjAddr: 0x88060, symBinAddr: 0x1000ACD40, symSize: 0x0 }
  - { offsetInCU: 0x56A7, offset: 0x26E3A, size: 0x8, addend: 0x0, symName: __ZN3thcL23attacks_black_lookup_c4E, symObjAddr: 0x880C0, symBinAddr: 0x1000ACDA0, symSize: 0x0 }
  - { offsetInCU: 0x56C2, offset: 0x26E55, size: 0x8, addend: 0x0, symName: __ZN3thcL23attacks_black_lookup_d4E, symObjAddr: 0x88120, symBinAddr: 0x1000ACE00, symSize: 0x0 }
  - { offsetInCU: 0x56DD, offset: 0x26E70, size: 0x8, addend: 0x0, symName: __ZN3thcL23attacks_black_lookup_e4E, symObjAddr: 0x88180, symBinAddr: 0x1000ACE60, symSize: 0x0 }
  - { offsetInCU: 0x56F8, offset: 0x26E8B, size: 0x8, addend: 0x0, symName: __ZN3thcL23attacks_black_lookup_f4E, symObjAddr: 0x881E0, symBinAddr: 0x1000ACEC0, symSize: 0x0 }
  - { offsetInCU: 0x5713, offset: 0x26EA6, size: 0x8, addend: 0x0, symName: __ZN3thcL23attacks_black_lookup_g4E, symObjAddr: 0x88240, symBinAddr: 0x1000ACF20, symSize: 0x0 }
  - { offsetInCU: 0x572E, offset: 0x26EC1, size: 0x8, addend: 0x0, symName: __ZN3thcL23attacks_black_lookup_h4E, symObjAddr: 0x882A0, symBinAddr: 0x1000ACF80, symSize: 0x0 }
  - { offsetInCU: 0x5749, offset: 0x26EDC, size: 0x8, addend: 0x0, symName: __ZN3thcL23attacks_black_lookup_a3E, symObjAddr: 0x88300, symBinAddr: 0x1000ACFE0, symSize: 0x0 }
  - { offsetInCU: 0x5764, offset: 0x26EF7, size: 0x8, addend: 0x0, symName: __ZN3thcL23attacks_black_lookup_b3E, symObjAddr: 0x88360, symBinAddr: 0x1000AD040, symSize: 0x0 }
  - { offsetInCU: 0x577F, offset: 0x26F12, size: 0x8, addend: 0x0, symName: __ZN3thcL23attacks_black_lookup_c3E, symObjAddr: 0x883C0, symBinAddr: 0x1000AD0A0, symSize: 0x0 }
  - { offsetInCU: 0x579A, offset: 0x26F2D, size: 0x8, addend: 0x0, symName: __ZN3thcL23attacks_black_lookup_d3E, symObjAddr: 0x88420, symBinAddr: 0x1000AD100, symSize: 0x0 }
  - { offsetInCU: 0x57B5, offset: 0x26F48, size: 0x8, addend: 0x0, symName: __ZN3thcL23attacks_black_lookup_e3E, symObjAddr: 0x88480, symBinAddr: 0x1000AD160, symSize: 0x0 }
  - { offsetInCU: 0x57D0, offset: 0x26F63, size: 0x8, addend: 0x0, symName: __ZN3thcL23attacks_black_lookup_f3E, symObjAddr: 0x884E0, symBinAddr: 0x1000AD1C0, symSize: 0x0 }
  - { offsetInCU: 0x57EB, offset: 0x26F7E, size: 0x8, addend: 0x0, symName: __ZN3thcL23attacks_black_lookup_g3E, symObjAddr: 0x88540, symBinAddr: 0x1000AD220, symSize: 0x0 }
  - { offsetInCU: 0x5806, offset: 0x26F99, size: 0x8, addend: 0x0, symName: __ZN3thcL23attacks_black_lookup_h3E, symObjAddr: 0x885A0, symBinAddr: 0x1000AD280, symSize: 0x0 }
  - { offsetInCU: 0x5821, offset: 0x26FB4, size: 0x8, addend: 0x0, symName: __ZN3thcL23attacks_black_lookup_a2E, symObjAddr: 0x88600, symBinAddr: 0x1000AD2E0, symSize: 0x0 }
  - { offsetInCU: 0x583C, offset: 0x26FCF, size: 0x8, addend: 0x0, symName: __ZN3thcL23attacks_black_lookup_b2E, symObjAddr: 0x88660, symBinAddr: 0x1000AD340, symSize: 0x0 }
  - { offsetInCU: 0x5857, offset: 0x26FEA, size: 0x8, addend: 0x0, symName: __ZN3thcL23attacks_black_lookup_c2E, symObjAddr: 0x886C0, symBinAddr: 0x1000AD3A0, symSize: 0x0 }
  - { offsetInCU: 0x5872, offset: 0x27005, size: 0x8, addend: 0x0, symName: __ZN3thcL23attacks_black_lookup_d2E, symObjAddr: 0x88720, symBinAddr: 0x1000AD400, symSize: 0x0 }
  - { offsetInCU: 0x588D, offset: 0x27020, size: 0x8, addend: 0x0, symName: __ZN3thcL23attacks_black_lookup_e2E, symObjAddr: 0x88780, symBinAddr: 0x1000AD460, symSize: 0x0 }
  - { offsetInCU: 0x58A8, offset: 0x2703B, size: 0x8, addend: 0x0, symName: __ZN3thcL23attacks_black_lookup_f2E, symObjAddr: 0x887E0, symBinAddr: 0x1000AD4C0, symSize: 0x0 }
  - { offsetInCU: 0x58C3, offset: 0x27056, size: 0x8, addend: 0x0, symName: __ZN3thcL23attacks_black_lookup_g2E, symObjAddr: 0x88840, symBinAddr: 0x1000AD520, symSize: 0x0 }
  - { offsetInCU: 0x58DE, offset: 0x27071, size: 0x8, addend: 0x0, symName: __ZN3thcL23attacks_black_lookup_h2E, symObjAddr: 0x888A0, symBinAddr: 0x1000AD580, symSize: 0x0 }
  - { offsetInCU: 0x58F9, offset: 0x2708C, size: 0x8, addend: 0x0, symName: __ZN3thcL23attacks_black_lookup_a1E, symObjAddr: 0x88900, symBinAddr: 0x1000AD5E0, symSize: 0x0 }
  - { offsetInCU: 0x5914, offset: 0x270A7, size: 0x8, addend: 0x0, symName: __ZN3thcL23attacks_black_lookup_b1E, symObjAddr: 0x88960, symBinAddr: 0x1000AD640, symSize: 0x0 }
  - { offsetInCU: 0x592F, offset: 0x270C2, size: 0x8, addend: 0x0, symName: __ZN3thcL23attacks_black_lookup_c1E, symObjAddr: 0x889C0, symBinAddr: 0x1000AD6A0, symSize: 0x0 }
  - { offsetInCU: 0x594A, offset: 0x270DD, size: 0x8, addend: 0x0, symName: __ZN3thcL23attacks_black_lookup_d1E, symObjAddr: 0x88A20, symBinAddr: 0x1000AD700, symSize: 0x0 }
  - { offsetInCU: 0x5965, offset: 0x270F8, size: 0x8, addend: 0x0, symName: __ZN3thcL23attacks_black_lookup_e1E, symObjAddr: 0x88A80, symBinAddr: 0x1000AD760, symSize: 0x0 }
  - { offsetInCU: 0x5980, offset: 0x27113, size: 0x8, addend: 0x0, symName: __ZN3thcL23attacks_black_lookup_f1E, symObjAddr: 0x88AE0, symBinAddr: 0x1000AD7C0, symSize: 0x0 }
  - { offsetInCU: 0x599B, offset: 0x2712E, size: 0x8, addend: 0x0, symName: __ZN3thcL23attacks_black_lookup_g1E, symObjAddr: 0x88B40, symBinAddr: 0x1000AD820, symSize: 0x0 }
  - { offsetInCU: 0x59B6, offset: 0x27149, size: 0x8, addend: 0x0, symName: __ZN3thcL23attacks_black_lookup_h1E, symObjAddr: 0x88BA0, symBinAddr: 0x1000AD880, symSize: 0x0 }
  - { offsetInCU: 0x59E6, offset: 0x27179, size: 0x8, addend: 0x0, symName: __ZN3thcppERNS_6SquareE, symObjAddr: 0x3374, symBinAddr: 0x10003C754, symSize: 0x100 }
  - { offsetInCU: 0x5B9D, offset: 0x27330, size: 0x8, addend: 0x0, symName: __ZL11hash_lookup, symObjAddr: 0x71760, symBinAddr: 0x1000C8000, symSize: 0x0 }
  - { offsetInCU: 0x5BD1, offset: 0x27364, size: 0x8, addend: 0x0, symName: __ZL13hash64_lookup, symObjAddr: 0x754A0, symBinAddr: 0x1000CBD40, symSize: 0x0 }
  - { offsetInCU: 0x5C01, offset: 0x27394, size: 0x8, addend: 0x0, symName: _.str.94, symObjAddr: 0x716C0, symBinAddr: 0x1000A4040, symSize: 0x0 }
  - { offsetInCU: 0x5C23, offset: 0x273B6, size: 0x8, addend: 0x0, symName: __ZL25castling_prohibited_table, symObjAddr: 0x7CF20, symBinAddr: 0x1000D37C0, symSize: 0x0 }
  - { offsetInCU: 0x5C4A, offset: 0x273DD, size: 0x8, addend: 0x0, symName: __ZL22either_colour_material, symObjAddr: 0x7EF60, symBinAddr: 0x1000D5800, symSize: 0x0 }
  - { offsetInCU: 0x5C78, offset: 0x2740B, size: 0x8, addend: 0x0, symName: __ZL14black_material, symObjAddr: 0x7F1E0, symBinAddr: 0x1000D5A80, symSize: 0x0 }
  - { offsetInCU: 0x5C93, offset: 0x27426, size: 0x8, addend: 0x0, symName: __ZL14white_material, symObjAddr: 0x7F460, symBinAddr: 0x1000D5D00, symSize: 0x0 }
  - { offsetInCU: 0x5CAE, offset: 0x27441, size: 0x8, addend: 0x0, symName: __ZL12black_pieces, symObjAddr: 0x7F6E0, symBinAddr: 0x1000D5F80, symSize: 0x0 }
  - { offsetInCU: 0x5CC9, offset: 0x2745C, size: 0x8, addend: 0x0, symName: __ZL12white_pieces, symObjAddr: 0x7F960, symBinAddr: 0x1000D6200, symSize: 0x0 }
  - { offsetInCU: 0x5CE4, offset: 0x27477, size: 0x8, addend: 0x0, symName: __ZL31king_ending_bonus_dynamic_white, symObjAddr: 0x127800, symBinAddr: 0x1000E8220, symSize: 0x0 }
  - { offsetInCU: 0x5CFF, offset: 0x27492, size: 0x8, addend: 0x0, symName: __ZL31king_ending_bonus_dynamic_black, symObjAddr: 0x127A80, symBinAddr: 0x1000E84A0, symSize: 0x0 }
  - { offsetInCU: 0x5D1A, offset: 0x274AD, size: 0x8, addend: 0x0, symName: __ZL24king_ending_bonus_static, symObjAddr: 0x7CF80, symBinAddr: 0x1000D3820, symSize: 0x0 }
  - { offsetInCU: 0x5E75, offset: 0x27608, size: 0x8, addend: 0x0, symName: _.str.100, symObjAddr: 0x71740, symBinAddr: 0x1000A40C0, symSize: 0x0 }
  - { offsetInCU: 0x9B7A, offset: 0x2B30D, size: 0x8, addend: 0x0, symName: __ZNSt3__114__copy_alignedB7v160006INS_6vectorIbNS_9allocatorIbEEEELb0EEENS_14__bit_iteratorIT_Lb0EXLi0EEEENS5_IS6_XT0_EXLi0EEEES8_S7_, symObjAddr: 0x4F558, symBinAddr: 0x1000809B0, symSize: 0xC9C }
  - { offsetInCU: 0x9CB4, offset: 0x2B447, size: 0x8, addend: 0x0, symName: __ZNSt3__16copy_nB7v160006IPmmS1_EENS_9enable_ifIXsr33__is_cpp17_random_access_iteratorIT_EE5valueET1_E4typeES3_T0_S4_, symObjAddr: 0x51E78, symBinAddr: 0x1000832D0, symSize: 0x44 }
  - { offsetInCU: 0x9D5C, offset: 0x2B4EF, size: 0x8, addend: 0x0, symName: __ZNSt3__116__copy_unalignedB7v160006INS_6vectorIbNS_9allocatorIbEEEELb0EEENS_14__bit_iteratorIT_Lb0EXLi0EEEENS5_IS6_XT0_EXLi0EEEES8_S7_, symObjAddr: 0x501F4, symBinAddr: 0x10008164C, symSize: 0x1C58 }
  - { offsetInCU: 0xBAC5, offset: 0x2D258, size: 0x8, addend: 0x0, symName: __ZNSt3__111__introsortINS_17_ClassicAlgPolicyERNS_6__lessI8MOVE_IDXS3_EENS_16reverse_iteratorINS_11__wrap_iterIPS3_EEEEEEvT1_SB_T0_NS_15iterator_traitsISB_E15difference_typeE, symObjAddr: 0x5D2FC, symBinAddr: 0x10008E700, symSize: 0x1BA8 }
  - { offsetInCU: 0xBC6F, offset: 0x2D402, size: 0x8, addend: 0x0, symName: __ZNSt3__118__insertion_sort_3B7v160006INS_17_ClassicAlgPolicyERNS_6__lessI8MOVE_IDXS3_EENS_16reverse_iteratorINS_11__wrap_iterIPS3_EEEEEEvT1_SB_T0_, symObjAddr: 0x6080C, symBinAddr: 0x100091BF4, symSize: 0x6A0 }
  - { offsetInCU: 0xBD56, offset: 0x2D4E9, size: 0x8, addend: 0x0, symName: __ZNSt3__111__sift_downB7v160006INS_17_ClassicAlgPolicyERNS_6__lessI8MOVE_IDXS3_EENS_16reverse_iteratorINS_11__wrap_iterIPS3_EEEEEEvT1_OT0_NS_15iterator_traitsISB_E15difference_typeESB_, symObjAddr: 0x65E24, symBinAddr: 0x10009720C, symSize: 0x7F0 }
  - { offsetInCU: 0xBE1B, offset: 0x2D5AE, size: 0x8, addend: 0x0, symName: __ZNSt3__117__floyd_sift_downB7v160006INS_17_ClassicAlgPolicyERNS_6__lessI8MOVE_IDXS3_EENS_16reverse_iteratorINS_11__wrap_iterIPS3_EEEEEET1_SB_OT0_NS_15iterator_traitsISB_E15difference_typeE, symObjAddr: 0x66F4C, symBinAddr: 0x100098334, symSize: 0x4B0 }
  - { offsetInCU: 0xBEC5, offset: 0x2D658, size: 0x8, addend: 0x0, symName: __ZNSt3__127__insertion_sort_incompleteIRNS_6__lessI8MOVE_IDXS2_EENS_16reverse_iteratorINS_11__wrap_iterIPS2_EEEEEEbT0_SA_T_, symObjAddr: 0x62EC8, symBinAddr: 0x1000942B0, symSize: 0xF84 }
  - { offsetInCU: 0xBFE4, offset: 0x2D777, size: 0x8, addend: 0x0, symName: __ZNSt3__111__introsortINS_17_ClassicAlgPolicyERNS_6__lessI8MOVE_IDXS3_EEPS3_EEvT1_S7_T0_NS_15iterator_traitsIS7_E15difference_typeE, symObjAddr: 0x69354, symBinAddr: 0x10009A73C, symSize: 0x1E84 }
  - { offsetInCU: 0xC156, offset: 0x2D8E9, size: 0x8, addend: 0x0, symName: __ZNSt3__118__insertion_sort_3B7v160006INS_17_ClassicAlgPolicyERNS_6__lessI8MOVE_IDXS3_EEPS3_EEvT1_S7_T0_, symObjAddr: 0x6B36C, symBinAddr: 0x10009C754, symSize: 0x578 }
  - { offsetInCU: 0xC231, offset: 0x2D9C4, size: 0x8, addend: 0x0, symName: __ZNSt3__111__sift_downB7v160006INS_17_ClassicAlgPolicyERNS_6__lessI8MOVE_IDXS3_EEPS3_EEvT1_OT0_NS_15iterator_traitsIS7_E15difference_typeES7_, symObjAddr: 0x6D988, symBinAddr: 0x10009ED70, symSize: 0x758 }
  - { offsetInCU: 0xC2F2, offset: 0x2DA85, size: 0x8, addend: 0x0, symName: __ZNSt3__117__floyd_sift_downB7v160006INS_17_ClassicAlgPolicyERNS_6__lessI8MOVE_IDXS3_EEPS3_EET1_S7_OT0_NS_15iterator_traitsIS7_E15difference_typeE, symObjAddr: 0x6E5E0, symBinAddr: 0x10009F9C8, symSize: 0x3D0 }
  - { offsetInCU: 0xC396, offset: 0x2DB29, size: 0x8, addend: 0x0, symName: __ZNSt3__127__insertion_sort_incompleteIRNS_6__lessI8MOVE_IDXS2_EEPS2_EEbT0_S6_T_, symObjAddr: 0x6C038, symBinAddr: 0x10009D420, symSize: 0xC10 }
  - { offsetInCU: 0xCFA6, offset: 0x2E739, size: 0x8, addend: 0x0, symName: __ZNSt3__14sortB7v160006INS_16reverse_iteratorINS_11__wrap_iterIP8MOVE_IDXEEEEEEvT_S7_, symObjAddr: 0x35ECC, symBinAddr: 0x10006EB08, symSize: 0x354 }
  - { offsetInCU: 0xCFF0, offset: 0x2E783, size: 0x8, addend: 0x0, symName: __ZNSt3__14sortB7v160006INS_11__wrap_iterIP8MOVE_IDXEEEEvT_S5_, symObjAddr: 0x367C8, symBinAddr: 0x10006F404, symSize: 0x348 }
  - { offsetInCU: 0xD240, offset: 0x2E9D3, size: 0x8, addend: 0x0, symName: __ZNSt3__125__debug_db_invalidate_allB7v160006INS_6vectorIbNS_9allocatorIbEEEEEEvPT_, symObjAddr: 0x4E154, symBinAddr: 0x10007F5C8, symSize: 0x10 }
  - { offsetInCU: 0xD271, offset: 0x2EA04, size: 0x8, addend: 0x0, symName: __ZNSt3__119__allocate_at_leastB7v160006INS_9allocatorImEEEENS_19__allocation_resultINS_16allocator_traitsIT_E7pointerEEERS5_m, symObjAddr: 0x4E7A4, symBinAddr: 0x10007FBFC, symSize: 0x28C }
  - { offsetInCU: 0xD2B6, offset: 0x2EA49, size: 0x8, addend: 0x0, symName: __ZNSt3__18distanceB7v160006INS_14__bit_iteratorINS_6vectorIbNS_9allocatorIbEEEELb0ELm0EEEEENS_15iterator_traitsIT_E15difference_typeES8_S8_, symObjAddr: 0x4EB70, symBinAddr: 0x10007FFC8, symSize: 0x210 }
  - { offsetInCU: 0xD2FD, offset: 0x2EA90, size: 0x8, addend: 0x0, symName: __ZNSt3__14copyB7v160006INS_6vectorIbNS_9allocatorIbEEEELb0EEENS_14__bit_iteratorIT_Lb0EXLi0EEEENS5_IS6_XT0_EXLi0EEEES8_S7_, symObjAddr: 0x4EDB4, symBinAddr: 0x10008020C, symSize: 0x3A8 }
  - { offsetInCU: 0xD362, offset: 0x2EAF5, size: 0x8, addend: 0x0, symName: __ZNSt3__110__distanceB7v160006INS_14__bit_iteratorINS_6vectorIbNS_9allocatorIbEEEELb0ELm0EEEEENS_15iterator_traitsIT_E15difference_typeES8_S8_NS_26random_access_iterator_tagE, symObjAddr: 0x4F1F8, symBinAddr: 0x100080650, symSize: 0x38 }
  - { offsetInCU: 0xD3B2, offset: 0x2EB45, size: 0x8, addend: 0x0, symName: __ZNSt3__1miB7v160006ERKNS_14__bit_iteratorINS_6vectorIbNS_9allocatorIbEEEELb0ELm0EEES7_, symObjAddr: 0x4F230, symBinAddr: 0x100080688, symSize: 0x1A0 }
  - { offsetInCU: 0xD3EF, offset: 0x2EB82, size: 0x8, addend: 0x0, symName: __ZNSt3__13minB7v160006IlEERKT_S3_S3_, symObjAddr: 0x51E4C, symBinAddr: 0x1000832A4, symSize: 0x2C }
  - { offsetInCU: 0xD432, offset: 0x2EBC5, size: 0x8, addend: 0x0, symName: __ZNSt3__112__to_addressB7v160006ImEEPT_S2_, symObjAddr: 0x51EBC, symBinAddr: 0x100083314, symSize: 0x14 }
  - { offsetInCU: 0xD467, offset: 0x2EBFA, size: 0x8, addend: 0x0, symName: __ZNSt3__13minB7v160006IlNS_6__lessIllEEEERKT_S5_S5_T0_, symObjAddr: 0x51ED0, symBinAddr: 0x100083328, symSize: 0x1E8 }
  - { offsetInCU: 0xD502, offset: 0x2EC95, size: 0x8, addend: 0x0, symName: __ZNSt3__14copyB7v160006IPmS1_EET0_T_S3_S2_, symObjAddr: 0x52174, symBinAddr: 0x1000835CC, symSize: 0x26C }
  - { offsetInCU: 0xD55F, offset: 0x2ECF2, size: 0x8, addend: 0x0, symName: __ZNSt3__16__copyB7v160006INS_17_ClassicAlgPolicyEPmS2_S2_EENS_4pairIT0_T2_EES4_T1_S5_, symObjAddr: 0x523E0, symBinAddr: 0x100083838, symSize: 0x22C }
  - { offsetInCU: 0xD5CE, offset: 0x2ED61, size: 0x8, addend: 0x0, symName: __ZNSt3__123__dispatch_copy_or_moveB7v160006INS_17_ClassicAlgPolicyENS_11__copy_loopIS1_EENS_14__copy_trivialEPmS5_S5_EENS_4pairIT2_T4_EES7_T3_S8_, symObjAddr: 0x5260C, symBinAddr: 0x100083A64, symSize: 0x22C }
  - { offsetInCU: 0xD64F, offset: 0x2EDE2, size: 0x8, addend: 0x0, symName: __ZNSt3__121__unwrap_and_dispatchB7v160006INS_10__overloadINS_11__copy_loopINS_17_ClassicAlgPolicyEEENS_14__copy_trivialEEEPmS7_S7_Li0EEENS_4pairIT0_T2_EES9_T1_SA_, symObjAddr: 0x52838, symBinAddr: 0x100083C90, symSize: 0x5A4 }
  - { offsetInCU: 0xD6EB, offset: 0x2EE7E, size: 0x8, addend: 0x0, symName: __ZNSt3__114__unwrap_rangeB7v160006IPmS1_EENS_4pairIT0_S3_EET_S5_, symObjAddr: 0x52DDC, symBinAddr: 0x100084234, symSize: 0x350 }
  - { offsetInCU: 0xD885, offset: 0x2F018, size: 0x8, addend: 0x0, symName: __ZNSt3__113__unwrap_iterB7v160006IPmNS_18__unwrap_iter_implIS1_Lb1EEELi0EEEDTclsrT0_8__unwrapclsr3stdE7declvalIT_EEEES5_, symObjAddr: 0x5335C, symBinAddr: 0x1000847B4, symSize: 0x24 }
  - { offsetInCU: 0xD8CA, offset: 0x2F05D, size: 0x8, addend: 0x0, symName: __ZNSt3__19make_pairB7v160006IPmS1_EENS_4pairINS_18__unwrap_ref_decayIT_E4typeENS3_IT0_E4typeEEEOS4_OS7_, symObjAddr: 0x53380, symBinAddr: 0x1000847D8, symSize: 0x20C }
  - { offsetInCU: 0xD91B, offset: 0x2F0AE, size: 0x8, addend: 0x0, symName: __ZNSt3__114__rewrap_rangeB7v160006IPmS1_EET_S2_T0_, symObjAddr: 0x5358C, symBinAddr: 0x1000849E4, symSize: 0x2C }
  - { offsetInCU: 0xD967, offset: 0x2F0FA, size: 0x8, addend: 0x0, symName: __ZNSt3__113__rewrap_iterB7v160006IPmS1_NS_18__unwrap_iter_implIS1_Lb1EEEEET_S4_T0_, symObjAddr: 0x535B8, symBinAddr: 0x100084A10, symSize: 0x48 }
  - { offsetInCU: 0xD9BC, offset: 0x2F14F, size: 0x8, addend: 0x0, symName: __ZNSt3__119__copy_trivial_implB7v160006ImmEENS_4pairIPT_PT0_EES3_S3_S5_, symObjAddr: 0x53600, symBinAddr: 0x100084A58, symSize: 0x3B8 }
  - { offsetInCU: 0xDA2C, offset: 0x2F1BF, size: 0x8, addend: 0x0, symName: __ZNSt3__19make_pairB7v160006IRPmS1_EENS_4pairINS_18__unwrap_ref_decayIT_E4typeENS4_IT0_E4typeEEEOS5_OS8_, symObjAddr: 0x539B8, symBinAddr: 0x100084E10, symSize: 0x20C }
  - { offsetInCU: 0xDAD0, offset: 0x2F263, size: 0x8, addend: 0x0, symName: __ZNSt3__14swapB7v160006IPmEENS_9enable_ifIXaasr21is_move_constructibleIT_EE5valuesr18is_move_assignableIS3_EE5valueEvE4typeERS3_S6_, symObjAddr: 0x54040, symBinAddr: 0x100085498, symSize: 0x134 }
  - { offsetInCU: 0xDB22, offset: 0x2F2B5, size: 0x8, addend: 0x0, symName: __ZNSt3__14swapB7v160006ImEENS_9enable_ifIXaasr21is_move_constructibleIT_EE5valuesr18is_move_assignableIS2_EE5valueEvE4typeERS2_S5_, symObjAddr: 0x54174, symBinAddr: 0x1000855CC, symSize: 0x134 }
  - { offsetInCU: 0xDB74, offset: 0x2F307, size: 0x8, addend: 0x0, symName: __ZNSt3__116__swap_allocatorB7v160006INS_9allocatorImEEEEvRT_S4_NS_17integral_constantIbLb0EEE, symObjAddr: 0x542A8, symBinAddr: 0x100085700, symSize: 0x14 }
  - { offsetInCU: 0xDBB8, offset: 0x2F34B, size: 0x8, addend: 0x0, symName: __ZNSt3__125__debug_db_invalidate_allB7v160006INS_6vectorIbNS_9allocatorIbEEE16__destroy_vectorEEEvPT_, symObjAddr: 0x54778, symBinAddr: 0x100085BD0, symSize: 0x10 }
  - { offsetInCU: 0xDBE9, offset: 0x2F37C, size: 0x8, addend: 0x0, symName: __ZNSt3__119__debug_db_insert_cB7v160006INS_6vectorI8MOVE_IDXNS_9allocatorIS2_EEEEEEvPT_, symObjAddr: 0x54E80, symBinAddr: 0x1000862D8, symSize: 0x10 }
  - { offsetInCU: 0xDC1A, offset: 0x2F3AD, size: 0x8, addend: 0x0, symName: __ZNSt3__118__debug_db_erase_cB7v160006INS_6vectorI8MOVE_IDXNS_9allocatorIS2_EEEEEEvPT_, symObjAddr: 0x5556C, symBinAddr: 0x1000869C4, symSize: 0x10 }
  - { offsetInCU: 0xDC4B, offset: 0x2F3DE, size: 0x8, addend: 0x0, symName: __ZNSt3__112__to_addressB7v160006I8MOVE_IDXEEPT_S3_, symObjAddr: 0x557B4, symBinAddr: 0x100086C0C, symSize: 0x14 }
  - { offsetInCU: 0xDC80, offset: 0x2F413, size: 0x8, addend: 0x0, symName: __ZNSt3__119__allocate_at_leastB7v160006INS_9allocatorI8MOVE_IDXEEEENS_19__allocation_resultINS_16allocator_traitsIT_E7pointerEEERS6_m, symObjAddr: 0x57ABC, symBinAddr: 0x100088F14, symSize: 0x28C }
  - { offsetInCU: 0xDCC5, offset: 0x2F458, size: 0x8, addend: 0x0, symName: __ZNSt3__142__uninitialized_allocator_move_if_noexceptB7v160006INS_9allocatorI8MOVE_IDXEENS_16reverse_iteratorIPS2_EES6_S2_vEET1_RT_T0_SA_S7_, symObjAddr: 0x57F58, symBinAddr: 0x1000893B0, symSize: 0x4A8 }
  - { offsetInCU: 0xDD50, offset: 0x2F4E3, size: 0x8, addend: 0x0, symName: __ZNSt3__14swapB7v160006IP8MOVE_IDXEENS_9enable_ifIXaasr21is_move_constructibleIT_EE5valuesr18is_move_assignableIS4_EE5valueEvE4typeERS4_S7_, symObjAddr: 0x58498, symBinAddr: 0x1000898F0, symSize: 0x134 }
  - { offsetInCU: 0xDDA2, offset: 0x2F535, size: 0x8, addend: 0x0, symName: __ZNSt3__125__debug_db_invalidate_allB7v160006INS_6vectorI8MOVE_IDXNS_9allocatorIS2_EEEEEEvPT_, symObjAddr: 0x5868C, symBinAddr: 0x100089AE4, symSize: 0x10 }
  - { offsetInCU: 0xDDD3, offset: 0x2F566, size: 0x8, addend: 0x0, symName: __ZNSt3__14moveB7v160006INS_16reverse_iteratorIP8MOVE_IDXEES4_EET0_T_S6_S5_, symObjAddr: 0x5869C, symBinAddr: 0x100089AF4, symSize: 0x4B0 }
  - { offsetInCU: 0xDE3A, offset: 0x2F5CD, size: 0x8, addend: 0x0, symName: __ZNSt3__16__moveB7v160006INS_17_ClassicAlgPolicyENS_16reverse_iteratorIP8MOVE_IDXEES5_S5_EENS_4pairIT0_T2_EES7_T1_S8_, symObjAddr: 0x58B4C, symBinAddr: 0x100089FA4, symSize: 0x424 }
  - { offsetInCU: 0xDEB2, offset: 0x2F645, size: 0x8, addend: 0x0, symName: __ZNSt3__123__dispatch_copy_or_moveB7v160006INS_17_ClassicAlgPolicyENS_11__move_loopIS1_EENS_14__move_trivialENS_16reverse_iteratorIP8MOVE_IDXEES8_S8_EENS_4pairIT2_T4_EESA_T3_SB_, symObjAddr: 0x58F70, symBinAddr: 0x10008A3C8, symSize: 0x424 }
  - { offsetInCU: 0xDF3C, offset: 0x2F6CF, size: 0x8, addend: 0x0, symName: __ZNSt3__121__unwrap_and_dispatchB7v160006INS_10__overloadINS_11__move_loopINS_17_ClassicAlgPolicyEEENS_14__move_trivialEEENS_16reverse_iteratorIP8MOVE_IDXEESA_SA_Li0EEENS_4pairIT0_T2_EESC_T1_SD_, symObjAddr: 0x59394, symBinAddr: 0x10008A7EC, symSize: 0x880 }
  - { offsetInCU: 0xDFE3, offset: 0x2F776, size: 0x8, addend: 0x0, symName: __ZNSt3__114__unwrap_rangeB7v160006INS_16reverse_iteratorIP8MOVE_IDXEES4_EENS_4pairIT0_S6_EET_S8_, symObjAddr: 0x59C14, symBinAddr: 0x10008B06C, symSize: 0x448 }
  - { offsetInCU: 0xE10C, offset: 0x2F89F, size: 0x8, addend: 0x0, symName: __ZNSt3__113__unwrap_iterB7v160006INS_16reverse_iteratorIP8MOVE_IDXEENS_18__unwrap_iter_implIS4_Lb0EEELi0EEEDTclsrT0_8__unwrapclsr3stdE7declvalIT_EEEES8_, symObjAddr: 0x5A3A0, symBinAddr: 0x10008B7F8, symSize: 0x2EC }
  - { offsetInCU: 0xE155, offset: 0x2F8E8, size: 0x8, addend: 0x0, symName: __ZNSt3__19make_pairB7v160006INS_16reverse_iteratorIP8MOVE_IDXEES4_EENS_4pairINS_18__unwrap_ref_decayIT_E4typeENS6_IT0_E4typeEEEOS7_OSA_, symObjAddr: 0x5A68C, symBinAddr: 0x10008BAE4, symSize: 0x38 }
  - { offsetInCU: 0xE1A4, offset: 0x2F937, size: 0x8, addend: 0x0, symName: __ZNSt3__114__rewrap_rangeB7v160006INS_16reverse_iteratorIP8MOVE_IDXEES4_EET_S5_T0_, symObjAddr: 0x5A6C4, symBinAddr: 0x10008BB1C, symSize: 0x3D4 }
  - { offsetInCU: 0xE1F8, offset: 0x2F98B, size: 0x8, addend: 0x0, symName: __ZNSt3__113__rewrap_iterB7v160006INS_16reverse_iteratorIP8MOVE_IDXEES4_NS_18__unwrap_iter_implIS4_Lb0EEEEET_S7_T0_, symObjAddr: 0x5AA98, symBinAddr: 0x10008BEF0, symSize: 0x3E8 }
  - { offsetInCU: 0xE255, offset: 0x2F9E8, size: 0x8, addend: 0x0, symName: __ZNSt3__1neB7v160006IP8MOVE_IDXS2_EEbRKNS_16reverse_iteratorIT_EERKNS3_IT0_EE, symObjAddr: 0x5AE80, symBinAddr: 0x10008C2D8, symSize: 0x48 }
  - { offsetInCU: 0xE30E, offset: 0x2FAA1, size: 0x8, addend: 0x0, symName: __ZNSt3__14sortB7v160006INS_16reverse_iteratorINS_11__wrap_iterIP8MOVE_IDXEEEENS_6__lessIS3_S3_EEEEvT_S9_T0_, symObjAddr: 0x5BE70, symBinAddr: 0x10008D2C8, symSize: 0x364 }
  - { offsetInCU: 0xE374, offset: 0x2FB07, size: 0x8, addend: 0x0, symName: __ZNSt3__111__sort_implB7v160006INS_17_ClassicAlgPolicyENS_16reverse_iteratorINS_11__wrap_iterIP8MOVE_IDXEEEENS_6__lessIS4_S4_EEEEvT0_SA_RT1_, symObjAddr: 0x5C1D4, symBinAddr: 0x10008D62C, symSize: 0x51C }
  - { offsetInCU: 0xE426, offset: 0x2FBB9, size: 0x8, addend: 0x0, symName: __ZNSt3__123__debug_randomize_rangeB7v160006INS_17_ClassicAlgPolicyENS_16reverse_iteratorINS_11__wrap_iterIP8MOVE_IDXEEEES7_EEvT0_T1_, symObjAddr: 0x5C6F0, symBinAddr: 0x10008DB48, symSize: 0x268 }
  - { offsetInCU: 0xE480, offset: 0x2FC13, size: 0x8, addend: 0x0, symName: __ZNSt3__16__sortIRNS_6__lessI8MOVE_IDXS2_EENS_16reverse_iteratorINS_11__wrap_iterIPS2_EEEEEEvT0_SA_T_, symObjAddr: 0x5C958, symBinAddr: 0x10008DDB0, symSize: 0x3A0 }
  - { offsetInCU: 0xE51B, offset: 0x2FCAE, size: 0x8, addend: 0x0, symName: __ZNSt3__113__unwrap_iterB7v160006INS_16reverse_iteratorINS_11__wrap_iterIP8MOVE_IDXEEEENS_18__unwrap_iter_implIS6_Lb0EEELi0EEEDTclsrT0_8__unwrapclsr3stdE7declvalIT_EEEESA_, symObjAddr: 0x5CCF8, symBinAddr: 0x10008E150, symSize: 0x2EC }
  - { offsetInCU: 0xE564, offset: 0x2FCF7, size: 0x8, addend: 0x0, symName: __ZNSt3__1miB7v160006INS_11__wrap_iterIP8MOVE_IDXEES4_EEDTmicldtfp0_4baseEcldtfp_4baseEERKNS_16reverse_iteratorIT_EERKNS6_IT0_EE, symObjAddr: 0x5D038, symBinAddr: 0x10008E43C, symSize: 0x2B0 }
  - { offsetInCU: 0xE623, offset: 0x2FDB6, size: 0x8, addend: 0x0, symName: __ZNSt3__1miB7v160006IP8MOVE_IDXS2_EEDTmicldtfp_4baseEcldtfp0_4baseEERKNS_11__wrap_iterIT_EERKNS4_IT0_EE, symObjAddr: 0x5EED8, symBinAddr: 0x1000902C0, symSize: 0x48 }
  - { offsetInCU: 0xE66F, offset: 0x2FE02, size: 0x8, addend: 0x0, symName: __ZNSt3__124__sort3_maybe_branchlessB7v160006INS_17_ClassicAlgPolicyERNS_6__lessI8MOVE_IDXS3_EENS_16reverse_iteratorINS_11__wrap_iterIPS3_EEEEEENS_9enable_ifIXntsr21__use_branchless_sortIT0_T1_EE5valueEvE4typeESD_SD_SD_SC_, symObjAddr: 0x5F65C, symBinAddr: 0x100090A44, symSize: 0x434 }
  - { offsetInCU: 0xE6ED, offset: 0x2FE80, size: 0x8, addend: 0x0, symName: __ZNSt3__124__sort4_maybe_branchlessB7v160006INS_17_ClassicAlgPolicyERNS_6__lessI8MOVE_IDXS3_EENS_16reverse_iteratorINS_11__wrap_iterIPS3_EEEEEENS_9enable_ifIXntsr21__use_branchless_sortIT0_T1_EE5valueEvE4typeESD_SD_SD_SD_SC_, symObjAddr: 0x5FD5C, symBinAddr: 0x100091144, symSize: 0x4EC }
  - { offsetInCU: 0xE784, offset: 0x2FF17, size: 0x8, addend: 0x0, symName: __ZNSt3__124__sort5_maybe_branchlessB7v160006INS_17_ClassicAlgPolicyERNS_6__lessI8MOVE_IDXS3_EENS_16reverse_iteratorINS_11__wrap_iterIPS3_EEEEEENS_9enable_ifIXntsr21__use_branchless_sortIT0_T1_EE5valueEvE4typeESD_SD_SD_SD_SD_SC_, symObjAddr: 0x60248, symBinAddr: 0x100091630, symSize: 0x5C4 }
  - { offsetInCU: 0xE82F, offset: 0x2FFC2, size: 0x8, addend: 0x0, symName: __ZNSt3__114__partial_sortB7v160006INS_17_ClassicAlgPolicyERNS_6__lessI8MOVE_IDXS3_EENS_16reverse_iteratorINS_11__wrap_iterIPS3_EEEESA_EET1_SB_SB_T2_RT0_, symObjAddr: 0x60EAC, symBinAddr: 0x100092294, symSize: 0x79C }
  - { offsetInCU: 0xE8CA, offset: 0x3005D, size: 0x8, addend: 0x0, symName: __ZNSt3__119__sort5_wrap_policyB7v160006INS_17_ClassicAlgPolicyERNS_6__lessI8MOVE_IDXS3_EENS_16reverse_iteratorINS_11__wrap_iterIPS3_EEEEEEjT1_SB_SB_SB_SB_T0_, symObjAddr: 0x61680, symBinAddr: 0x100092A68, symSize: 0x5D4 }
  - { offsetInCU: 0xE989, offset: 0x3011C, size: 0x8, addend: 0x0, symName: __ZNSt3__17__sort3B7v160006INS_17_ClassicAlgPolicyERNS_6__lessI8MOVE_IDXS3_EENS_16reverse_iteratorINS_11__wrap_iterIPS3_EEEEEEjT1_SB_SB_T0_, symObjAddr: 0x61C54, symBinAddr: 0x10009303C, symSize: 0x4C0 }
  - { offsetInCU: 0xEA17, offset: 0x301AA, size: 0x8, addend: 0x0, symName: __ZNSt3__1eqB7v160006INS_11__wrap_iterIP8MOVE_IDXEES4_EEbRKNS_16reverse_iteratorIT_EERKNS5_IT0_EE, symObjAddr: 0x62114, symBinAddr: 0x1000934FC, symSize: 0x2B4 }
  - { offsetInCU: 0xEA65, offset: 0x301F8, size: 0x8, addend: 0x0, symName: __ZNSt3__1geB7v160006INS_11__wrap_iterIP8MOVE_IDXEES4_EEbRKNS_16reverse_iteratorIT_EERKNS5_IT0_EE, symObjAddr: 0x623F8, symBinAddr: 0x1000937E0, symSize: 0x2B4 }
  - { offsetInCU: 0xEAB6, offset: 0x30249, size: 0x8, addend: 0x0, symName: __ZNSt3__1ltB7v160006INS_11__wrap_iterIP8MOVE_IDXEES4_EEbRKNS_16reverse_iteratorIT_EERKNS5_IT0_EE, symObjAddr: 0x626AC, symBinAddr: 0x100093A94, symSize: 0x2B4 }
  - { offsetInCU: 0xEB04, offset: 0x30297, size: 0x8, addend: 0x0, symName: __ZNSt3__1gtB7v160006INS_11__wrap_iterIP8MOVE_IDXEES4_EEbRKNS_16reverse_iteratorIT_EERKNS5_IT0_EE, symObjAddr: 0x62960, symBinAddr: 0x100093D48, symSize: 0x2B4 }
  - { offsetInCU: 0xEB52, offset: 0x302E5, size: 0x8, addend: 0x0, symName: __ZNSt3__1neB7v160006INS_11__wrap_iterIP8MOVE_IDXEES4_EEbRKNS_16reverse_iteratorIT_EERKNS5_IT0_EE, symObjAddr: 0x62C14, symBinAddr: 0x100093FFC, symSize: 0x2B4 }
  - { offsetInCU: 0xEBA0, offset: 0x30333, size: 0x8, addend: 0x0, symName: __ZNSt3__19iter_swapB7v160006INS_16reverse_iteratorINS_11__wrap_iterIP8MOVE_IDXEEEES6_EEvT_T0_, symObjAddr: 0x6409C, symBinAddr: 0x100095484, symSize: 0x28C }
  - { offsetInCU: 0xEBF1, offset: 0x30384, size: 0x8, addend: 0x0, symName: __ZNSt3__14swapB7v160006I8MOVE_IDXEENS_9enable_ifIXaasr21is_move_constructibleIT_EE5valuesr18is_move_assignableIS3_EE5valueEvE4typeERS3_S6_, symObjAddr: 0x64328, symBinAddr: 0x100095710, symSize: 0x1FC }
  - { offsetInCU: 0xEC49, offset: 0x303DC, size: 0x8, addend: 0x0, symName: __ZNSt3__17__sort4B7v160006INS_17_ClassicAlgPolicyERNS_6__lessI8MOVE_IDXS3_EENS_16reverse_iteratorINS_11__wrap_iterIPS3_EEEEEEjT1_SB_SB_SB_T0_, symObjAddr: 0x649EC, symBinAddr: 0x100095DD4, symSize: 0x5B0 }
  - { offsetInCU: 0xECEA, offset: 0x3047D, size: 0x8, addend: 0x0, symName: __ZNSt3__119__partial_sort_implB7v160006INS_17_ClassicAlgPolicyERNS_6__lessI8MOVE_IDXS3_EENS_16reverse_iteratorINS_11__wrap_iterIPS3_EEEESA_EET1_SB_SB_T2_OT0_, symObjAddr: 0x652A8, symBinAddr: 0x100096690, symSize: 0x790 }
  - { offsetInCU: 0xED95, offset: 0x30528, size: 0x8, addend: 0x0, symName: __ZNSt3__111__make_heapB7v160006INS_17_ClassicAlgPolicyERNS_6__lessI8MOVE_IDXS3_EENS_16reverse_iteratorINS_11__wrap_iterIPS3_EEEEEEvT1_SB_OT0_, symObjAddr: 0x65A38, symBinAddr: 0x100096E20, symSize: 0x3EC }
  - { offsetInCU: 0xEE47, offset: 0x305DA, size: 0x8, addend: 0x0, symName: __ZNSt3__111__sort_heapB7v160006INS_17_ClassicAlgPolicyERNS_6__lessI8MOVE_IDXS3_EENS_16reverse_iteratorINS_11__wrap_iterIPS3_EEEEEEvT1_SB_OT0_, symObjAddr: 0x66614, symBinAddr: 0x1000979FC, symSize: 0x3C4 }
  - { offsetInCU: 0xEEE9, offset: 0x3067C, size: 0x8, addend: 0x0, symName: __ZNSt3__110__pop_heapB7v160006INS_17_ClassicAlgPolicyENS_6__lessI8MOVE_IDXS3_EENS_16reverse_iteratorINS_11__wrap_iterIPS3_EEEEEEvT1_SA_RT0_NS_15iterator_traitsISA_E15difference_typeE, symObjAddr: 0x669D8, symBinAddr: 0x100097DC0, symSize: 0x574 }
  - { offsetInCU: 0xEFA9, offset: 0x3073C, size: 0x8, addend: 0x0, symName: __ZNSt3__19__sift_upB7v160006INS_17_ClassicAlgPolicyERNS_6__lessI8MOVE_IDXS3_EENS_16reverse_iteratorINS_11__wrap_iterIPS3_EEEEEEvT1_SB_OT0_NS_15iterator_traitsISB_E15difference_typeE, symObjAddr: 0x673FC, symBinAddr: 0x1000987E4, symSize: 0x518 }
  - { offsetInCU: 0xF05F, offset: 0x307F2, size: 0x8, addend: 0x0, symName: __ZNSt3__17__sort5IRNS_6__lessI8MOVE_IDXS2_EENS_16reverse_iteratorINS_11__wrap_iterIPS2_EEEEEEjT0_SA_SA_SA_SA_T_, symObjAddr: 0x67950, symBinAddr: 0x100098D38, symSize: 0x6D0 }
  - { offsetInCU: 0xF125, offset: 0x308B8, size: 0x8, addend: 0x0, symName: __ZNSt3__1eqB7v160006IP8MOVE_IDXEEbRKNS_11__wrap_iterIT_EES7_, symObjAddr: 0x68020, symBinAddr: 0x100099408, symSize: 0x48 }
  - { offsetInCU: 0xF168, offset: 0x308FB, size: 0x8, addend: 0x0, symName: __ZNSt3__1leB7v160006IP8MOVE_IDXEEbRKNS_11__wrap_iterIT_EES7_, symObjAddr: 0x68068, symBinAddr: 0x100099450, symSize: 0x34 }
  - { offsetInCU: 0xF1AB, offset: 0x3093E, size: 0x8, addend: 0x0, symName: __ZNSt3__1ltB7v160006IP8MOVE_IDXEEbRKNS_11__wrap_iterIT_EES7_, symObjAddr: 0x6809C, symBinAddr: 0x100099484, symSize: 0x48 }
  - { offsetInCU: 0xF1EE, offset: 0x30981, size: 0x8, addend: 0x0, symName: __ZNSt3__1gtB7v160006IP8MOVE_IDXEEbRKNS_11__wrap_iterIT_EES7_, symObjAddr: 0x680E4, symBinAddr: 0x1000994CC, symSize: 0x30 }
  - { offsetInCU: 0xF231, offset: 0x309C4, size: 0x8, addend: 0x0, symName: __ZNSt3__1neB7v160006IP8MOVE_IDXEEbRKNS_11__wrap_iterIT_EES7_, symObjAddr: 0x68114, symBinAddr: 0x1000994FC, symSize: 0x34 }
  - { offsetInCU: 0xF2BC, offset: 0x30A4F, size: 0x8, addend: 0x0, symName: __ZNSt3__14sortB7v160006INS_11__wrap_iterIP8MOVE_IDXEENS_6__lessIS2_S2_EEEEvT_S7_T0_, symObjAddr: 0x6866C, symBinAddr: 0x100099A54, symSize: 0x36C }
  - { offsetInCU: 0xF322, offset: 0x30AB5, size: 0x8, addend: 0x0, symName: __ZNSt3__111__sort_implB7v160006INS_17_ClassicAlgPolicyENS_11__wrap_iterIP8MOVE_IDXEENS_6__lessIS3_S3_EEEEvT0_S8_RT1_, symObjAddr: 0x689D8, symBinAddr: 0x100099DC0, symSize: 0x43C }
  - { offsetInCU: 0xF3D4, offset: 0x30B67, size: 0x8, addend: 0x0, symName: __ZNSt3__123__debug_randomize_rangeB7v160006INS_17_ClassicAlgPolicyENS_11__wrap_iterIP8MOVE_IDXEES5_EEvT0_T1_, symObjAddr: 0x68E14, symBinAddr: 0x10009A1FC, symSize: 0x264 }
  - { offsetInCU: 0xF42E, offset: 0x30BC1, size: 0x8, addend: 0x0, symName: __ZNSt3__16__sortIRNS_6__lessI8MOVE_IDXS2_EEPS2_EEvT0_S6_T_, symObjAddr: 0x69078, symBinAddr: 0x10009A460, symSize: 0x68 }
  - { offsetInCU: 0xF4BE, offset: 0x30C51, size: 0x8, addend: 0x0, symName: __ZNSt3__113__unwrap_iterB7v160006INS_11__wrap_iterIP8MOVE_IDXEENS_18__unwrap_iter_implIS4_Lb1EEELi0EEEDTclsrT0_8__unwrapclsr3stdE7declvalIT_EEEES8_, symObjAddr: 0x690E0, symBinAddr: 0x10009A4C8, symSize: 0x274 }
  - { offsetInCU: 0xF507, offset: 0x30C9A, size: 0x8, addend: 0x0, symName: __ZNSt3__124__sort3_maybe_branchlessB7v160006INS_17_ClassicAlgPolicyERNS_6__lessI8MOVE_IDXS3_EEPS3_EENS_9enable_ifIXntsr21__use_branchless_sortIT0_T1_EE5valueEvE4typeES9_S9_S9_S8_, symObjAddr: 0x6B2A0, symBinAddr: 0x10009C688, symSize: 0x3C }
  - { offsetInCU: 0xF578, offset: 0x30D0B, size: 0x8, addend: 0x0, symName: __ZNSt3__124__sort4_maybe_branchlessB7v160006INS_17_ClassicAlgPolicyERNS_6__lessI8MOVE_IDXS3_EEPS3_EENS_9enable_ifIXntsr21__use_branchless_sortIT0_T1_EE5valueEvE4typeES9_S9_S9_S9_S8_, symObjAddr: 0x6B2DC, symBinAddr: 0x10009C6C4, symSize: 0x44 }
  - { offsetInCU: 0xF5FD, offset: 0x30D90, size: 0x8, addend: 0x0, symName: __ZNSt3__124__sort5_maybe_branchlessB7v160006INS_17_ClassicAlgPolicyERNS_6__lessI8MOVE_IDXS3_EEPS3_EENS_9enable_ifIXntsr21__use_branchless_sortIT0_T1_EE5valueEvE4typeES9_S9_S9_S9_S9_S8_, symObjAddr: 0x6B320, symBinAddr: 0x10009C708, symSize: 0x4C }
  - { offsetInCU: 0xF691, offset: 0x30E24, size: 0x8, addend: 0x0, symName: __ZNSt3__114__partial_sortB7v160006INS_17_ClassicAlgPolicyERNS_6__lessI8MOVE_IDXS3_EEPS3_S6_EET1_S7_S7_T2_RT0_, symObjAddr: 0x6B8E4, symBinAddr: 0x10009CCCC, symSize: 0x94 }
  - { offsetInCU: 0xF71A, offset: 0x30EAD, size: 0x8, addend: 0x0, symName: __ZNSt3__119__sort5_wrap_policyB7v160006INS_17_ClassicAlgPolicyERNS_6__lessI8MOVE_IDXS3_EEPS3_EEjT1_S7_S7_S7_S7_T0_, symObjAddr: 0x6B978, symBinAddr: 0x10009CD60, symSize: 0x54 }
  - { offsetInCU: 0xF7C1, offset: 0x30F54, size: 0x8, addend: 0x0, symName: __ZNSt3__17__sort3B7v160006INS_17_ClassicAlgPolicyERNS_6__lessI8MOVE_IDXS3_EEPS3_EEjT1_S7_S7_T0_, symObjAddr: 0x6B9CC, symBinAddr: 0x10009CDB4, symSize: 0x66C }
  - { offsetInCU: 0xF84F, offset: 0x30FE2, size: 0x8, addend: 0x0, symName: __ZNSt3__19iter_swapB7v160006IP8MOVE_IDXS2_EEvT_T0_, symObjAddr: 0x6CC60, symBinAddr: 0x10009E048, symSize: 0x2C }
  - { offsetInCU: 0xF898, offset: 0x3102B, size: 0x8, addend: 0x0, symName: __ZNSt3__17__sort4B7v160006INS_17_ClassicAlgPolicyERNS_6__lessI8MOVE_IDXS3_EEPS3_EEjT1_S7_S7_S7_T0_, symObjAddr: 0x6CC8C, symBinAddr: 0x10009E074, symSize: 0x608 }
  - { offsetInCU: 0xF939, offset: 0x310CC, size: 0x8, addend: 0x0, symName: __ZNSt3__123__debug_randomize_rangeB7v160006INS_17_ClassicAlgPolicyEP8MOVE_IDXS3_EEvT0_T1_, symObjAddr: 0x6D31C, symBinAddr: 0x10009E704, symSize: 0x14 }
  - { offsetInCU: 0xF98A, offset: 0x3111D, size: 0x8, addend: 0x0, symName: __ZNSt3__119__partial_sort_implB7v160006INS_17_ClassicAlgPolicyERNS_6__lessI8MOVE_IDXS3_EEPS3_S6_EET1_S7_S7_T2_OT0_, symObjAddr: 0x6D330, symBinAddr: 0x10009E718, symSize: 0x59C }
  - { offsetInCU: 0xFA2E, offset: 0x311C1, size: 0x8, addend: 0x0, symName: __ZNSt3__111__make_heapB7v160006INS_17_ClassicAlgPolicyERNS_6__lessI8MOVE_IDXS3_EEPS3_EEvT1_S7_OT0_, symObjAddr: 0x6D8CC, symBinAddr: 0x10009ECB4, symSize: 0xBC }
  - { offsetInCU: 0xFAD4, offset: 0x31267, size: 0x8, addend: 0x0, symName: __ZNSt3__111__sort_heapB7v160006INS_17_ClassicAlgPolicyERNS_6__lessI8MOVE_IDXS3_EEPS3_EEvT1_S7_OT0_, symObjAddr: 0x6E0E0, symBinAddr: 0x10009F4C8, symSize: 0x94 }
  - { offsetInCU: 0xFB6B, offset: 0x312FE, size: 0x8, addend: 0x0, symName: __ZNSt3__110__pop_heapB7v160006INS_17_ClassicAlgPolicyENS_6__lessI8MOVE_IDXS3_EEPS3_EEvT1_S6_RT0_NS_15iterator_traitsIS6_E15difference_typeE, symObjAddr: 0x6E174, symBinAddr: 0x10009F55C, symSize: 0x46C }
  - { offsetInCU: 0xFC27, offset: 0x313BA, size: 0x8, addend: 0x0, symName: __ZNSt3__19__sift_upB7v160006INS_17_ClassicAlgPolicyERNS_6__lessI8MOVE_IDXS3_EEPS3_EEvT1_S7_OT0_NS_15iterator_traitsIS7_E15difference_typeE, symObjAddr: 0x6E9B0, symBinAddr: 0x10009FD98, symSize: 0x51C }
  - { offsetInCU: 0xFCD9, offset: 0x3146C, size: 0x8, addend: 0x0, symName: __ZNSt3__17__sort5IRNS_6__lessI8MOVE_IDXS2_EEPS2_EEjT0_S6_S6_S6_S6_T_, symObjAddr: 0x6EECC, symBinAddr: 0x1000A02B4, symSize: 0x760 }
  - { offsetInCU: 0xFDF2, offset: 0x31585, size: 0x8, addend: 0x0, symName: __ZNSt3__112__to_addressB7v160006INS_11__wrap_iterIP8MOVE_IDXEEvEENS_5decayIDTclsr19__to_address_helperIT_EE6__callclsr3stdE7declvalIRKS6_EEEEE4typeES8_, symObjAddr: 0x6F81C, symBinAddr: 0x1000A0C04, symSize: 0x24 }
  - { offsetInCU: 0x103DA, offset: 0x31B6D, size: 0x8, addend: 0x0, symName: __ZN3thc4Move10NaturalOutEPNS_10ChessRulesE, symObjAddr: 0x43870, symBinAddr: 0x10007C4AC, symSize: 0x1668 }
  - { offsetInCU: 0x10849, offset: 0x31FDC, size: 0x8, addend: 0x0, symName: __ZNSt3__16vectorI8MOVE_IDXNS_9allocatorIS1_EEE26__swap_out_circular_bufferERNS_14__split_bufferIS1_RS3_EE, symObjAddr: 0x56C0C, symBinAddr: 0x100088064, symSize: 0x574 }
  - { offsetInCU: 0x10D6F, offset: 0x32502, size: 0x8, addend: 0x0, symName: __Z6strchrB7v160006Ua9enable_ifIXLb1EEEPci, symObjAddr: 0x3B420, symBinAddr: 0x10007405C, symSize: 0x2C }
  - { offsetInCU: 0x11EB6, offset: 0x33649, size: 0x8, addend: 0x0, symName: __Z7isalnumi, symObjAddr: 0x3B44C, symBinAddr: 0x100074088, symSize: 0x28 }
  - { offsetInCU: 0x11F21, offset: 0x336B4, size: 0x8, addend: 0x0, symName: __Z7isdigiti, symObjAddr: 0x3474, symBinAddr: 0x10003C854, symSize: 0x28 }
  - { offsetInCU: 0x12014, offset: 0x337A7, size: 0x8, addend: 0x0, symName: __Z7toupperi, symObjAddr: 0x3E0, symBinAddr: 0x1000397EC, symSize: 0x24 }
  - { offsetInCU: 0x127B9, offset: 0x33F4C, size: 0x8, addend: 0x0, symName: __Z13strcmp_ignorePKcS0_, symObjAddr: 0x0, symBinAddr: 0x100039430, symSize: 0x3BC }
  - { offsetInCU: 0x1282E, offset: 0x33FC1, size: 0x8, addend: 0x0, symName: __ZNK3thc13ChessPosition9CmpStrictERKS0_, symObjAddr: 0x404, symBinAddr: 0x100039810, symSize: 0x228 }
  - { offsetInCU: 0x12867, offset: 0x33FFA, size: 0x8, addend: 0x0, symName: __ZNK3thc13ChessPositioneqERKS0_, symObjAddr: 0x62C, symBinAddr: 0x100039A38, symSize: 0x264 }
  - { offsetInCU: 0x1289B, offset: 0x3402E, size: 0x8, addend: 0x0, symName: __ZN3thc13ChessPosition10ToDebugStrEPKc, symObjAddr: 0x890, symBinAddr: 0x100039C9C, symSize: 0x2CC }
  - { offsetInCU: 0x12943, offset: 0x340D6, size: 0x8, addend: 0x0, symName: __ZNSt3__112basic_stringIcNS_11char_traitsIcEENS_9allocatorIcEEEaSB7v160006EPKc, symObjAddr: 0xB88, symBinAddr: 0x100039F68, symSize: 0x2C }
  - { offsetInCU: 0x12978, offset: 0x3410B, size: 0x8, addend: 0x0, symName: __ZNSt3__112basic_stringIcNS_11char_traitsIcEENS_9allocatorIcEEEpLB7v160006EPKc, symObjAddr: 0xBB4, symBinAddr: 0x100039F94, symSize: 0x2C }
  - { offsetInCU: 0x129AD, offset: 0x34140, size: 0x8, addend: 0x0, symName: __ZNSt3__112basic_stringIcNS_11char_traitsIcEENS_9allocatorIcEEEpLB7v160006Ec, symObjAddr: 0xBE0, symBinAddr: 0x100039FC0, symSize: 0x34 }
  - { offsetInCU: 0x129E1, offset: 0x34174, size: 0x8, addend: 0x0, symName: __ZN3thc13ChessPosition7ForsythEPKc, symObjAddr: 0xC14, symBinAddr: 0x100039FF4, symSize: 0x2590 }
  - { offsetInCU: 0x12B94, offset: 0x34327, size: 0x8, addend: 0x0, symName: __ZN3thc13ChessPosition14ForsythPublishEv, symObjAddr: 0x349C, symBinAddr: 0x10003C87C, symSize: 0x9C0 }
  - { offsetInCU: 0x12CCD, offset: 0x34460, size: 0x8, addend: 0x0, symName: __ZNK3thc13ChessPosition13wking_allowedEv, symObjAddr: 0x3E5C, symBinAddr: 0x10003D23C, symSize: 0x19C }
  - { offsetInCU: 0x12CF3, offset: 0x34486, size: 0x8, addend: 0x0, symName: __ZNK3thc13ChessPosition14wqueen_allowedEv, symObjAddr: 0x3FF8, symBinAddr: 0x10003D3D8, symSize: 0x19C }
  - { offsetInCU: 0x12D19, offset: 0x344AC, size: 0x8, addend: 0x0, symName: __ZNK3thc13ChessPosition13bking_allowedEv, symObjAddr: 0x4194, symBinAddr: 0x10003D574, symSize: 0x19C }
  - { offsetInCU: 0x12D3F, offset: 0x344D2, size: 0x8, addend: 0x0, symName: __ZNK3thc13ChessPosition14bqueen_allowedEv, symObjAddr: 0x4330, symBinAddr: 0x10003D710, symSize: 0x19C }
  - { offsetInCU: 0x12D64, offset: 0x344F7, size: 0x8, addend: 0x0, symName: __ZNK3thc13ChessPosition8CompressERNS_18CompressedPositionE, symObjAddr: 0x44CC, symBinAddr: 0x10003D8AC, symSize: 0x1924 }
  - { offsetInCU: 0x12EBC, offset: 0x3464F, size: 0x8, addend: 0x0, symName: __ZN3thc13ChessPositionC1ERKS0_, symObjAddr: 0x5F74, symBinAddr: 0x10003F354, symSize: 0x34 }
  - { offsetInCU: 0x12EF5, offset: 0x34688, size: 0x8, addend: 0x0, symName: __ZNK3thc13ChessPosition24groomed_enpassant_targetEv, symObjAddr: 0x5FA8, symBinAddr: 0x10003F388, symSize: 0x8B4 }
  - { offsetInCU: 0x12F82, offset: 0x34715, size: 0x8, addend: 0x0, symName: __ZN3thc13ChessPositionD1Ev, symObjAddr: 0x685C, symBinAddr: 0x10003FC3C, symSize: 0x2C }
  - { offsetInCU: 0x12FAB, offset: 0x3473E, size: 0x8, addend: 0x0, symName: __ZN3thc13ChessPosition10DecompressERKNS_18CompressedPositionE, symObjAddr: 0x6888, symBinAddr: 0x10003FC68, symSize: 0x17B8 }
  - { offsetInCU: 0x1307A, offset: 0x3480D, size: 0x8, addend: 0x0, symName: __ZN3thc13ChessPosition13HashCalculateEv, symObjAddr: 0x809C, symBinAddr: 0x10004147C, symSize: 0x1B4 }
  - { offsetInCU: 0x130FB, offset: 0x3488E, size: 0x8, addend: 0x0, symName: __ZN3thc13ChessPosition10HashUpdateEjNS_4MoveE, symObjAddr: 0x8250, symBinAddr: 0x100041630, symSize: 0x2F04 }
  - { offsetInCU: 0x13352, offset: 0x34AE5, size: 0x8, addend: 0x0, symName: __ZN3thc13ChessPosition15Hash64CalculateEv, symObjAddr: 0xB184, symBinAddr: 0x100044564, symSize: 0x18C }
  - { offsetInCU: 0x133D3, offset: 0x34B66, size: 0x8, addend: 0x0, symName: __ZN3thc13ChessPosition12Hash64UpdateEyNS_4MoveE, symObjAddr: 0xB310, symBinAddr: 0x1000446F0, symSize: 0x2644 }
  - { offsetInCU: 0x1362A, offset: 0x34DBD, size: 0x8, addend: 0x0, symName: __ZN3thc10ChessRules13TestInternalsEPFiPKczE, symObjAddr: 0xD984, symBinAddr: 0x100046D64, symSize: 0x3BD0 }
  - { offsetInCU: 0x137B0, offset: 0x34F43, size: 0x8, addend: 0x0, symName: __ZL11log_discardPKcz, symObjAddr: 0x1156C, symBinAddr: 0x10004A94C, symSize: 0x14 }
  - { offsetInCU: 0x137DD, offset: 0x34F70, size: 0x8, addend: 0x0, symName: __ZN3thc4Move7TerseInEPNS_10ChessRulesEPKc, symObjAddr: 0x1174C, symBinAddr: 0x10004A960, symSize: 0xE3C }
  - { offsetInCU: 0x13898, offset: 0x3502B, size: 0x8, addend: 0x0, symName: __ZN3thc10ChessRules8PlayMoveENS_4MoveE, symObjAddr: 0x12598, symBinAddr: 0x10004B7AC, symSize: 0x700 }
  - { offsetInCU: 0x138D5, offset: 0x35068, size: 0x8, addend: 0x0, symName: __ZN3thc4Move8TerseOutEv, symObjAddr: 0x130F8, symBinAddr: 0x10004BEAC, symSize: 0xA7C }
  - { offsetInCU: 0x13912, offset: 0x350A5, size: 0x8, addend: 0x0, symName: __ZN3thc10ChessRules8PushMoveERNS_4MoveE, symObjAddr: 0x13B98, symBinAddr: 0x10004C928, symSize: 0x2660 }
  - { offsetInCU: 0x1394A, offset: 0x350DD, size: 0x8, addend: 0x0, symName: __ZN3thc10ChessRules7PopMoveERNS_4MoveE, symObjAddr: 0x1622C, symBinAddr: 0x10004EFBC, symSize: 0x1400 }
  - { offsetInCU: 0x13982, offset: 0x35115, size: 0x8, addend: 0x0, symName: __ZN3thc10ChessRules16GenLegalMoveListERNSt3__16vectorINS_4MoveENS1_9allocatorIS3_EEEE, symObjAddr: 0x1765C, symBinAddr: 0x1000503EC, symSize: 0x2B4 }
  - { offsetInCU: 0x139ED, offset: 0x35180, size: 0x8, addend: 0x0, symName: __ZN3thc10ChessRules16GenLegalMoveListEPNS_8MOVELISTE, symObjAddr: 0x17910, symBinAddr: 0x1000506A0, symSize: 0x398 }
  - { offsetInCU: 0x13A6A, offset: 0x351FD, size: 0x8, addend: 0x0, symName: __ZN3thc10ChessRules16GenLegalMoveListERNSt3__16vectorINS_4MoveENS1_9allocatorIS3_EEEERNS2_IbNS4_IbEEEESA_SA_, symObjAddr: 0x17D88, symBinAddr: 0x100050A38, symSize: 0x4B0 }
  - { offsetInCU: 0x13B41, offset: 0x352D4, size: 0x8, addend: 0x0, symName: __ZN3thc10ChessRules16GenLegalMoveListEPNS_8MOVELISTEPbS3_S3_, symObjAddr: 0x18238, symBinAddr: 0x100050EE8, symSize: 0x914 }
  - { offsetInCU: 0x13C30, offset: 0x353C3, size: 0x8, addend: 0x0, symName: __ZNSt3__16vectorIbNS_9allocatorIbEEE9push_backERKb, symObjAddr: 0x18B4C, symBinAddr: 0x1000517FC, symSize: 0x384 }
  - { offsetInCU: 0x13C68, offset: 0x353FB, size: 0x8, addend: 0x0, symName: __ZN3thc10ChessRules11GenMoveListEPNS_8MOVELISTE, symObjAddr: 0x18ED0, symBinAddr: 0x100051B80, symSize: 0x9C0 }
  - { offsetInCU: 0x13D4B, offset: 0x354DE, size: 0x8, addend: 0x0, symName: __ZN3thc10ChessRules8EvaluateEv, symObjAddr: 0x19954, symBinAddr: 0x100052604, symSize: 0x198 }
  - { offsetInCU: 0x13D83, offset: 0x35516, size: 0x8, addend: 0x0, symName: __ZN3thc10ChessRules8EvaluateERNS_8TERMINALE, symObjAddr: 0x19AEC, symBinAddr: 0x10005279C, symSize: 0x34 }
  - { offsetInCU: 0x13DBB, offset: 0x3554E, size: 0x8, addend: 0x0, symName: __ZN3thc10ChessRules13AttackedPieceENS_6SquareE, symObjAddr: 0x19B20, symBinAddr: 0x1000527D0, symSize: 0xC4 }
  - { offsetInCU: 0x13E02, offset: 0x35595, size: 0x8, addend: 0x0, symName: __ZN3thc10ChessRules6IsDrawEbRNS_8DRAWTYPEE, symObjAddr: 0x19BE4, symBinAddr: 0x100052894, symSize: 0x270 }
  - { offsetInCU: 0x13E58, offset: 0x355EB, size: 0x8, addend: 0x0, symName: __ZN3thc10ChessRules18IsInsufficientDrawEbRNS_8DRAWTYPEE, symObjAddr: 0x19E54, symBinAddr: 0x100052B04, symSize: 0x688 }
  - { offsetInCU: 0x13F23, offset: 0x356B6, size: 0x8, addend: 0x0, symName: __ZN3thc10ChessRules18GetRepetitionCountEv, symObjAddr: 0x1A4DC, symBinAddr: 0x10005318C, symSize: 0x1DF0 }
  - { offsetInCU: 0x14120, offset: 0x358B3, size: 0x8, addend: 0x0, symName: __ZN3thc10ChessRules14WhitePawnMovesEPNS_8MOVELISTENS_6SquareE, symObjAddr: 0x1C2F4, symBinAddr: 0x100054F7C, symSize: 0x1DC0 }
  - { offsetInCU: 0x141F4, offset: 0x35987, size: 0x8, addend: 0x0, symName: __ZN3thc10ChessRules14BlackPawnMovesEPNS_8MOVELISTENS_6SquareE, symObjAddr: 0x1E0B4, symBinAddr: 0x100056D3C, symSize: 0x1E44 }
  - { offsetInCU: 0x142C8, offset: 0x35A5B, size: 0x8, addend: 0x0, symName: __ZN3thc10ChessRules10ShortMovesEPNS_8MOVELISTENS_6SquareEPKhNS_7SPECIALE, symObjAddr: 0x1FEF8, symBinAddr: 0x100058B80, symSize: 0x820 }
  - { offsetInCU: 0x1437A, offset: 0x35B0D, size: 0x8, addend: 0x0, symName: __ZN3thc10ChessRules9LongMovesEPNS_8MOVELISTENS_6SquareEPKh, symObjAddr: 0x20718, symBinAddr: 0x1000593A0, symSize: 0x8B4 }
  - { offsetInCU: 0x14437, offset: 0x35BCA, size: 0x8, addend: 0x0, symName: __ZN3thc10ChessRules9KingMovesEPNS_8MOVELISTENS_6SquareE, symObjAddr: 0x20FCC, symBinAddr: 0x100059C54, symSize: 0x139C }
  - { offsetInCU: 0x1449C, offset: 0x35C2F, size: 0x8, addend: 0x0, symName: __ZN3thc10ChessRules14AttackedSquareENS_6SquareEb, symObjAddr: 0x22368, symBinAddr: 0x10005AFF0, symSize: 0x808 }
  - { offsetInCU: 0x14596, offset: 0x35D29, size: 0x8, addend: 0x0, symName: __ZN3thc13ChessPosition6ToggleEv, symObjAddr: 0x22B70, symBinAddr: 0x10005B7F8, symSize: 0xFC }
  - { offsetInCU: 0x145BB, offset: 0x35D4E, size: 0x8, addend: 0x0, symName: __ZN3thc10ChessRules8EvaluateEPNS_8MOVELISTERNS_8TERMINALE, symObjAddr: 0x22C6C, symBinAddr: 0x10005B8F4, symSize: 0x9E8 }
  - { offsetInCU: 0x14678, offset: 0x35E0B, size: 0x8, addend: 0x0, symName: __ZN3thc10ChessRules9TransformEv, symObjAddr: 0x23654, symBinAddr: 0x10005C2DC, symSize: 0xFEC }
  - { offsetInCU: 0x14771, offset: 0x35F04, size: 0x8, addend: 0x0, symName: __ZN3thc10ChessRules9TransformENS_4MoveE, symObjAddr: 0x24704, symBinAddr: 0x10005D38C, symSize: 0xBB4 }
  - { offsetInCU: 0x14831, offset: 0x35FC4, size: 0x8, addend: 0x0, symName: __ZN3thc10ChessRules7IsLegalERNS_14ILLEGAL_REASONE, symObjAddr: 0x25334, symBinAddr: 0x10005DF70, symSize: 0x598 }
  - { offsetInCU: 0x1494A, offset: 0x360DD, size: 0x8, addend: 0x0, symName: __ZN3thc15ChessEvaluation12EnpriseWhiteEv, symObjAddr: 0x258CC, symBinAddr: 0x10005E508, symSize: 0x27F0 }
  - { offsetInCU: 0x14BD8, offset: 0x3636B, size: 0x8, addend: 0x0, symName: __ZN3thc15ChessEvaluation12EnpriseBlackEv, symObjAddr: 0x280BC, symBinAddr: 0x100060CF8, symSize: 0x2804 }
  - { offsetInCU: 0x14E66, offset: 0x365F9, size: 0x8, addend: 0x0, symName: __ZN3thc15ChessEvaluation8PlanningEv, symObjAddr: 0x2A8C0, symBinAddr: 0x1000634FC, symSize: 0x171C }
  - { offsetInCU: 0x14FD0, offset: 0x36763, size: 0x8, addend: 0x0, symName: __ZN3thc15ChessEvaluation12EvaluateLeafERiS1_, symObjAddr: 0x2BFDC, symBinAddr: 0x100064C18, symSize: 0x8888 }
  - { offsetInCU: 0x15795, offset: 0x36F28, size: 0x8, addend: 0x0, symName: __ZN3thc15ChessEvaluation22GenLegalMoveListSortedERNSt3__16vectorINS_4MoveENS1_9allocatorIS3_EEEE, symObjAddr: 0x34D94, symBinAddr: 0x10006D9D0, symSize: 0x2B4 }
  - { offsetInCU: 0x15800, offset: 0x36F93, size: 0x8, addend: 0x0, symName: __ZN3thc15ChessEvaluation22GenLegalMoveListSortedEPNS_8MOVELISTE, symObjAddr: 0x35048, symBinAddr: 0x10006DC84, symSize: 0xD78 }
  - { offsetInCU: 0x15917, offset: 0x370AA, size: 0x8, addend: 0x0, symName: __ZNSt3__16vectorI8MOVE_IDXNS_9allocatorIS1_EEEC1B7v160006Ev, symObjAddr: 0x35DC0, symBinAddr: 0x10006E9FC, symSize: 0x2C }
  - { offsetInCU: 0x15941, offset: 0x370D4, size: 0x8, addend: 0x0, symName: __ZNSt3__16vectorI8MOVE_IDXNS_9allocatorIS1_EEE9push_backB7v160006ERKS1_, symObjAddr: 0x35DEC, symBinAddr: 0x10006EA28, symSize: 0xE0 }
  - { offsetInCU: 0x15978, offset: 0x3710B, size: 0x8, addend: 0x0, symName: __ZNSt3__16vectorI8MOVE_IDXNS_9allocatorIS1_EEE6rbeginB7v160006Ev, symObjAddr: 0x36220, symBinAddr: 0x10006EE5C, symSize: 0x2D4 }
  - { offsetInCU: 0x1599F, offset: 0x37132, size: 0x8, addend: 0x0, symName: __ZNSt3__16vectorI8MOVE_IDXNS_9allocatorIS1_EEE4rendB7v160006Ev, symObjAddr: 0x364F4, symBinAddr: 0x10006F130, symSize: 0x2D4 }
  - { offsetInCU: 0x159C6, offset: 0x37159, size: 0x8, addend: 0x0, symName: __ZNSt3__16vectorI8MOVE_IDXNS_9allocatorIS1_EEE5beginB7v160006Ev, symObjAddr: 0x36B10, symBinAddr: 0x10006F74C, symSize: 0x268 }
  - { offsetInCU: 0x159EF, offset: 0x37182, size: 0x8, addend: 0x0, symName: __ZNSt3__16vectorI8MOVE_IDXNS_9allocatorIS1_EEE3endB7v160006Ev, symObjAddr: 0x36D78, symBinAddr: 0x10006F9B4, symSize: 0x26C }
  - { offsetInCU: 0x15A18, offset: 0x371AB, size: 0x8, addend: 0x0, symName: __ZNKSt3__16vectorI8MOVE_IDXNS_9allocatorIS1_EEE4sizeB7v160006Ev, symObjAddr: 0x36FE4, symBinAddr: 0x10006FC20, symSize: 0xB0 }
  - { offsetInCU: 0x15A3E, offset: 0x371D1, size: 0x8, addend: 0x0, symName: __ZNSt3__16vectorI8MOVE_IDXNS_9allocatorIS1_EEEixB7v160006Em, symObjAddr: 0x37094, symBinAddr: 0x10006FCD0, symSize: 0x6C }
  - { offsetInCU: 0x15A75, offset: 0x37208, size: 0x8, addend: 0x0, symName: __ZNSt3__16vectorI8MOVE_IDXNS_9allocatorIS1_EEED1B7v160006Ev, symObjAddr: 0x37100, symBinAddr: 0x10006FD3C, symSize: 0x2C }
  - { offsetInCU: 0x15A9E, offset: 0x37231, size: 0x8, addend: 0x0, symName: __ZN3thc4Move9NaturalInEPNS_10ChessRulesEPKc, symObjAddr: 0x3712C, symBinAddr: 0x10006FD68, symSize: 0x41A8 }
  - { offsetInCU: 0x15C7B, offset: 0x3740E, size: 0x8, addend: 0x0, symName: __ZN3thc4Move13NaturalInFastEPNS_10ChessRulesEPKc, symObjAddr: 0x3B474, symBinAddr: 0x1000740B0, symSize: 0x8064 }
  - { offsetInCU: 0x162BC, offset: 0x37A4F, size: 0x8, addend: 0x0, symName: __ZN3thc13ChessPositionD0Ev, symObjAddr: 0x4503C, symBinAddr: 0x10007DB3C, symSize: 0x30 }
  - { offsetInCU: 0x162E5, offset: 0x37A78, size: 0x8, addend: 0x0, symName: __Z9__isctypeim, symObjAddr: 0x4506C, symBinAddr: 0x10007DB6C, symSize: 0xFC }
  - { offsetInCU: 0x1634D, offset: 0x37AE0, size: 0x8, addend: 0x0, symName: __ZNKSt3__16vectorIbNS_9allocatorIbEEE8capacityB7v160006Ev, symObjAddr: 0x4C7F4, symBinAddr: 0x10007DC68, symSize: 0x70 }
  - { offsetInCU: 0x16373, offset: 0x37B06, size: 0x8, addend: 0x0, symName: __ZNSt3__16vectorIbNS_9allocatorIbEEE7reserveEm, symObjAddr: 0x4C864, symBinAddr: 0x10007DCD8, symSize: 0x408 }
  - { offsetInCU: 0x163C5, offset: 0x37B58, size: 0x8, addend: 0x0, symName: __ZNKSt3__16vectorIbNS_9allocatorIbEEE11__recommendB7v160006Em, symObjAddr: 0x4CC6C, symBinAddr: 0x10007E0E0, symSize: 0x378 }
  - { offsetInCU: 0x1641E, offset: 0x37BB1, size: 0x8, addend: 0x0, symName: __ZNSt3__16vectorIbNS_9allocatorIbEEE4backB7v160006Ev, symObjAddr: 0x4CFE4, symBinAddr: 0x10007E458, symSize: 0x258 }
  - { offsetInCU: 0x16445, offset: 0x37BD8, size: 0x8, addend: 0x0, symName: __ZNSt3__115__bit_referenceINS_6vectorIbNS_9allocatorIbEEEELb1EEaSB7v160006Eb, symObjAddr: 0x4D23C, symBinAddr: 0x10007E6B0, symSize: 0x1C8 }
  - { offsetInCU: 0x16479, offset: 0x37C0C, size: 0x8, addend: 0x0, symName: __ZNSt3__16vectorIbNS_9allocatorIbEEE26__internal_cap_to_externalB7v160006Em, symObjAddr: 0x4D404, symBinAddr: 0x10007E878, symSize: 0x18 }
  - { offsetInCU: 0x1649D, offset: 0x37C30, size: 0x8, addend: 0x0, symName: __ZNKSt3__16vectorIbNS_9allocatorIbEEE5__capB7v160006Ev, symObjAddr: 0x4D41C, symBinAddr: 0x10007E890, symSize: 0x28 }
  - { offsetInCU: 0x164C3, offset: 0x37C56, size: 0x8, addend: 0x0, symName: __ZNKSt3__117__compressed_pairImNS_9allocatorImEEE5firstB7v160006Ev, symObjAddr: 0x4D444, symBinAddr: 0x10007E8B8, symSize: 0x24 }
  - { offsetInCU: 0x164E9, offset: 0x37C7C, size: 0x8, addend: 0x0, symName: __ZNKSt3__122__compressed_pair_elemImLi0ELb0EE5__getB7v160006Ev, symObjAddr: 0x4D468, symBinAddr: 0x10007E8DC, symSize: 0x14 }
  - { offsetInCU: 0x1650F, offset: 0x37CA2, size: 0x8, addend: 0x0, symName: __ZNKSt3__16vectorIbNS_9allocatorIbEEE8max_sizeEv, symObjAddr: 0x4D47C, symBinAddr: 0x10007E8F0, symSize: 0x8C }
  - { offsetInCU: 0x16555, offset: 0x37CE8, size: 0x8, addend: 0x0, symName: __ZNKSt3__16vectorIbNS_9allocatorIbEEE20__throw_length_errorB7v160006Ev, symObjAddr: 0x4D508, symBinAddr: 0x10007E97C, symSize: 0x20 }
  - { offsetInCU: 0x1657B, offset: 0x37D0E, size: 0x8, addend: 0x0, symName: __ZNKSt3__16vectorIbNS_9allocatorIbEEE13get_allocatorB7v160006Ev, symObjAddr: 0x4D528, symBinAddr: 0x10007E99C, symSize: 0x1C4 }
  - { offsetInCU: 0x165A2, offset: 0x37D35, size: 0x8, addend: 0x0, symName: __ZNSt3__16vectorIbNS_9allocatorIbEEEC1B7v160006ERKS2_, symObjAddr: 0x4D6EC, symBinAddr: 0x10007EB60, symSize: 0x34 }
  - { offsetInCU: 0x165DD, offset: 0x37D70, size: 0x8, addend: 0x0, symName: __ZNSt3__16vectorIbNS_9allocatorIbEEE11__vallocateB7v160006Em, symObjAddr: 0x4D720, symBinAddr: 0x10007EB94, symSize: 0x3A0 }
  - { offsetInCU: 0x16627, offset: 0x37DBA, size: 0x8, addend: 0x0, symName: __ZNSt3__16vectorIbNS_9allocatorIbEEE18__construct_at_endINS_14__bit_iteratorIS3_Lb0ELm0EEEEENS_9enable_ifIXsr27__is_cpp17_forward_iteratorIT_EE5valueEvE4typeES8_S8_, symObjAddr: 0x4DAC0, symBinAddr: 0x10007EF34, symSize: 0x568 }
  - { offsetInCU: 0x1668B, offset: 0x37E1E, size: 0x8, addend: 0x0, symName: __ZNSt3__16vectorIbNS_9allocatorIbEEE5beginB7v160006Ev, symObjAddr: 0x4E028, symBinAddr: 0x10007F49C, symSize: 0x30 }
  - { offsetInCU: 0x166B1, offset: 0x37E44, size: 0x8, addend: 0x0, symName: __ZNSt3__16vectorIbNS_9allocatorIbEEE3endB7v160006Ev, symObjAddr: 0x4E058, symBinAddr: 0x10007F4CC, symSize: 0x78 }
  - { offsetInCU: 0x166D7, offset: 0x37E6A, size: 0x8, addend: 0x0, symName: __ZNSt3__16vectorIbNS_9allocatorIbEEE4swapERS3_, symObjAddr: 0x4E0D0, symBinAddr: 0x10007F544, symSize: 0x84 }
  - { offsetInCU: 0x1670E, offset: 0x37EA1, size: 0x8, addend: 0x0, symName: __ZNSt3__16vectorIbNS_9allocatorIbEEED1B7v160006Ev, symObjAddr: 0x4E164, symBinAddr: 0x10007F5D8, symSize: 0x2C }
  - { offsetInCU: 0x16742, offset: 0x37ED5, size: 0x8, addend: 0x0, symName: __ZNSt3__116allocator_traitsINS_9allocatorImEEE8max_sizeB7v160006IS2_vEEmRKS2_, symObjAddr: 0x4E190, symBinAddr: 0x10007F604, symSize: 0x24 }
  - { offsetInCU: 0x16770, offset: 0x37F03, size: 0x8, addend: 0x0, symName: __ZNKSt3__16vectorIbNS_9allocatorIbEEE7__allocB7v160006Ev, symObjAddr: 0x4E1B4, symBinAddr: 0x10007F628, symSize: 0x28 }
  - { offsetInCU: 0x16796, offset: 0x37F29, size: 0x8, addend: 0x0, symName: __ZNKSt3__19allocatorImE8max_sizeB7v160006Ev, symObjAddr: 0x4E1F0, symBinAddr: 0x10007F650, symSize: 0x14 }
  - { offsetInCU: 0x167BC, offset: 0x37F4F, size: 0x8, addend: 0x0, symName: __ZNKSt3__117__compressed_pairImNS_9allocatorImEEE6secondB7v160006Ev, symObjAddr: 0x4E204, symBinAddr: 0x10007F664, symSize: 0x24 }
  - { offsetInCU: 0x167E2, offset: 0x37F75, size: 0x8, addend: 0x0, symName: __ZNKSt3__122__compressed_pair_elemINS_9allocatorImEELi1ELb1EE5__getB7v160006Ev, symObjAddr: 0x4E228, symBinAddr: 0x10007F688, symSize: 0x14 }
  - { offsetInCU: 0x16808, offset: 0x37F9B, size: 0x8, addend: 0x0, symName: __ZNSt3__19allocatorIbEC1B7v160006ImEERKNS0_IT_EE, symObjAddr: 0x4E244, symBinAddr: 0x10007F69C, symSize: 0x34 }
  - { offsetInCU: 0x16846, offset: 0x37FD9, size: 0x8, addend: 0x0, symName: __ZNSt3__19allocatorIbEC2B7v160006ImEERKNS0_IT_EE, symObjAddr: 0x4E278, symBinAddr: 0x10007F6D0, symSize: 0x30 }
  - { offsetInCU: 0x16884, offset: 0x38017, size: 0x8, addend: 0x0, symName: __ZNSt3__116__non_trivial_ifILb1ENS_9allocatorIbEEEC2B7v160006Ev, symObjAddr: 0x4E2A8, symBinAddr: 0x10007F700, symSize: 0x14 }
  - { offsetInCU: 0x168AE, offset: 0x38041, size: 0x8, addend: 0x0, symName: __ZNSt3__16vectorIbNS_9allocatorIbEEEC2B7v160006ERKS2_, symObjAddr: 0x4E2BC, symBinAddr: 0x10007F714, symSize: 0x300 }
  - { offsetInCU: 0x168F0, offset: 0x38083, size: 0x8, addend: 0x0, symName: __ZNSt3__19allocatorImEC1B7v160006IbEERKNS0_IT_EE, symObjAddr: 0x4E5BC, symBinAddr: 0x10007FA14, symSize: 0x34 }
  - { offsetInCU: 0x16938, offset: 0x380CB, size: 0x8, addend: 0x0, symName: __ZNSt3__117__compressed_pairImNS_9allocatorImEEEC1B7v160006IiS2_EEOT_OT0_, symObjAddr: 0x4E5F0, symBinAddr: 0x10007FA48, symSize: 0x3C }
  - { offsetInCU: 0x16990, offset: 0x38123, size: 0x8, addend: 0x0, symName: __ZNSt3__19allocatorImEC2B7v160006IbEERKNS0_IT_EE, symObjAddr: 0x4E62C, symBinAddr: 0x10007FA84, symSize: 0x30 }
  - { offsetInCU: 0x169CE, offset: 0x38161, size: 0x8, addend: 0x0, symName: __ZNSt3__116__non_trivial_ifILb1ENS_9allocatorImEEEC2B7v160006Ev, symObjAddr: 0x4E65C, symBinAddr: 0x10007FAB4, symSize: 0x14 }
  - { offsetInCU: 0x169F8, offset: 0x3818B, size: 0x8, addend: 0x0, symName: __ZNSt3__117__compressed_pairImNS_9allocatorImEEEC2B7v160006IiS2_EEOT_OT0_, symObjAddr: 0x4E670, symBinAddr: 0x10007FAC8, symSize: 0x44 }
  - { offsetInCU: 0x16A50, offset: 0x381E3, size: 0x8, addend: 0x0, symName: __ZNSt3__122__compressed_pair_elemImLi0ELb0EEC2B7v160006IivEEOT_, symObjAddr: 0x4E6B4, symBinAddr: 0x10007FB0C, symSize: 0xD8 }
  - { offsetInCU: 0x16A92, offset: 0x38225, size: 0x8, addend: 0x0, symName: __ZNSt3__122__compressed_pair_elemINS_9allocatorImEELi1ELb1EEC2B7v160006IS2_vEEOT_, symObjAddr: 0x4E78C, symBinAddr: 0x10007FBE4, symSize: 0x18 }
  - { offsetInCU: 0x16AD4, offset: 0x38267, size: 0x8, addend: 0x0, symName: __ZNSt3__16vectorIbNS_9allocatorIbEEE7__allocB7v160006Ev, symObjAddr: 0x4EA30, symBinAddr: 0x10007FE88, symSize: 0x28 }
  - { offsetInCU: 0x16AFA, offset: 0x3828D, size: 0x8, addend: 0x0, symName: __ZNSt3__16vectorIbNS_9allocatorIbEEE26__external_cap_to_internalB7v160006Em, symObjAddr: 0x4EA58, symBinAddr: 0x10007FEB0, symSize: 0x24 }
  - { offsetInCU: 0x16B1E, offset: 0x382B1, size: 0x8, addend: 0x0, symName: __ZNSt3__16vectorIbNS_9allocatorIbEEE5__capB7v160006Ev, symObjAddr: 0x4EA7C, symBinAddr: 0x10007FED4, symSize: 0x28 }
  - { offsetInCU: 0x16B44, offset: 0x382D7, size: 0x8, addend: 0x0, symName: __ZNSt3__19allocatorImE8allocateB7v160006Em, symObjAddr: 0x4EAA4, symBinAddr: 0x10007FEFC, symSize: 0x5C }
  - { offsetInCU: 0x16B78, offset: 0x3830B, size: 0x8, addend: 0x0, symName: __ZNSt3__117__compressed_pairImNS_9allocatorImEEE6secondB7v160006Ev, symObjAddr: 0x4EB00, symBinAddr: 0x10007FF58, symSize: 0x24 }
  - { offsetInCU: 0x16B9E, offset: 0x38331, size: 0x8, addend: 0x0, symName: __ZNSt3__122__compressed_pair_elemINS_9allocatorImEELi1ELb1EE5__getB7v160006Ev, symObjAddr: 0x4EB24, symBinAddr: 0x10007FF7C, symSize: 0x14 }
  - { offsetInCU: 0x16BC4, offset: 0x38357, size: 0x8, addend: 0x0, symName: __ZNSt3__117__compressed_pairImNS_9allocatorImEEE5firstB7v160006Ev, symObjAddr: 0x4EB38, symBinAddr: 0x10007FF90, symSize: 0x24 }
  - { offsetInCU: 0x16BEA, offset: 0x3837D, size: 0x8, addend: 0x0, symName: __ZNSt3__122__compressed_pair_elemImLi0ELb0EE5__getB7v160006Ev, symObjAddr: 0x4EB5C, symBinAddr: 0x10007FFB4, symSize: 0x14 }
  - { offsetInCU: 0x16C10, offset: 0x383A3, size: 0x8, addend: 0x0, symName: __ZNSt3__114__bit_iteratorINS_6vectorIbNS_9allocatorIbEEEELb0ELm0EEC1B7v160006ERKS5_, symObjAddr: 0x4ED80, symBinAddr: 0x1000801D8, symSize: 0x34 }
  - { offsetInCU: 0x16C49, offset: 0x383DC, size: 0x8, addend: 0x0, symName: __ZNSt3__16vectorIbNS_9allocatorIbEEE11__make_iterB7v160006Em, symObjAddr: 0x4F15C, symBinAddr: 0x1000805B4, symSize: 0x9C }
  - { offsetInCU: 0x16C7E, offset: 0x38411, size: 0x8, addend: 0x0, symName: __ZNSt3__114__bit_iteratorINS_6vectorIbNS_9allocatorIbEEEELb0ELm0EEC2B7v160006ERKS5_, symObjAddr: 0x4F3D0, symBinAddr: 0x100080828, symSize: 0x188 }
  - { offsetInCU: 0x16CCB, offset: 0x3845E, size: 0x8, addend: 0x0, symName: __ZNKSt3__16__lessIllEclB7v160006ERKlS3_, symObjAddr: 0x520B8, symBinAddr: 0x100083510, symSize: 0xBC }
  - { offsetInCU: 0x16D30, offset: 0x384C3, size: 0x8, addend: 0x0, symName: __ZNKSt3__114__copy_trivialclB7v160006ImmLi0EEENS_4pairIPT_PT0_EES4_S4_S6_, symObjAddr: 0x5312C, symBinAddr: 0x100084584, symSize: 0x230 }
  - { offsetInCU: 0x16DA7, offset: 0x3853A, size: 0x8, addend: 0x0, symName: __ZNSt3__14pairIPmS1_EC1B7v160006IRS1_S1_LPv0EEEOT_OT0_, symObjAddr: 0x53BC4, symBinAddr: 0x10008501C, symSize: 0x3C }
  - { offsetInCU: 0x16E06, offset: 0x38599, size: 0x8, addend: 0x0, symName: __ZNSt3__14pairIPmS1_EC2B7v160006IRS1_S1_LPv0EEEOT_OT0_, symObjAddr: 0x53C00, symBinAddr: 0x100085058, symSize: 0x138 }
  - { offsetInCU: 0x16E65, offset: 0x385F8, size: 0x8, addend: 0x0, symName: __ZNSt3__118__unwrap_iter_implIPmLb1EE8__unwrapB7v160006ES1_, symObjAddr: 0x53D38, symBinAddr: 0x100085190, symSize: 0x24 }
  - { offsetInCU: 0x16E88, offset: 0x3861B, size: 0x8, addend: 0x0, symName: __ZNSt3__14pairIPmS1_EC1B7v160006IS1_S1_LPv0EEEOT_OT0_, symObjAddr: 0x53D5C, symBinAddr: 0x1000851B4, symSize: 0x3C }
  - { offsetInCU: 0x16EE7, offset: 0x3867A, size: 0x8, addend: 0x0, symName: __ZNSt3__14pairIPmS1_EC2B7v160006IS1_S1_LPv0EEEOT_OT0_, symObjAddr: 0x53D98, symBinAddr: 0x1000851F0, symSize: 0x138 }
  - { offsetInCU: 0x16F46, offset: 0x386D9, size: 0x8, addend: 0x0, symName: __ZNSt3__118__unwrap_iter_implIPmLb1EE8__rewrapB7v160006ES1_S1_, symObjAddr: 0x53ED0, symBinAddr: 0x100085328, symSize: 0x50 }
  - { offsetInCU: 0x16F77, offset: 0x3870A, size: 0x8, addend: 0x0, symName: __ZNSt3__114__bit_iteratorINS_6vectorIbNS_9allocatorIbEEEELb0ELm0EEC1B7v160006EPmj, symObjAddr: 0x53F20, symBinAddr: 0x100085378, symSize: 0x3C }
  - { offsetInCU: 0x16FBF, offset: 0x38752, size: 0x8, addend: 0x0, symName: __ZNSt3__114__bit_iteratorINS_6vectorIbNS_9allocatorIbEEEELb0ELm0EEC2B7v160006EPmj, symObjAddr: 0x53F5C, symBinAddr: 0x1000853B4, symSize: 0xE4 }
  - { offsetInCU: 0x17007, offset: 0x3879A, size: 0x8, addend: 0x0, symName: __ZNSt3__16vectorIbNS_9allocatorIbEEED2B7v160006Ev, symObjAddr: 0x542BC, symBinAddr: 0x100085714, symSize: 0x1F8 }
  - { offsetInCU: 0x17032, offset: 0x387C5, size: 0x8, addend: 0x0, symName: __ZNSt3__16vectorIbNS_9allocatorIbEEE16__destroy_vectorC1ERS3_, symObjAddr: 0x544B4, symBinAddr: 0x10008590C, symSize: 0x34 }
  - { offsetInCU: 0x1706B, offset: 0x387FE, size: 0x8, addend: 0x0, symName: __ZNSt3__16vectorIbNS_9allocatorIbEEE16__destroy_vectorclB7v160006Ev, symObjAddr: 0x544E8, symBinAddr: 0x100085940, symSize: 0x1EC }
  - { offsetInCU: 0x17091, offset: 0x38824, size: 0x8, addend: 0x0, symName: __ZNSt3__16vectorIbNS_9allocatorIbEEE16__destroy_vectorC2ERS3_, symObjAddr: 0x546D4, symBinAddr: 0x100085B2C, symSize: 0x70 }
  - { offsetInCU: 0x170CA, offset: 0x3885D, size: 0x8, addend: 0x0, symName: __ZNSt3__116allocator_traitsINS_9allocatorImEEE10deallocateB7v160006ERS2_Pmm, symObjAddr: 0x54744, symBinAddr: 0x100085B9C, symSize: 0x34 }
  - { offsetInCU: 0x1710C, offset: 0x3889F, size: 0x8, addend: 0x0, symName: __ZNSt3__19allocatorImE10deallocateB7v160006EPmm, symObjAddr: 0x54788, symBinAddr: 0x100085BE0, symSize: 0x4C }
  - { offsetInCU: 0x1714E, offset: 0x388E1, size: 0x8, addend: 0x0, symName: __ZNSt3__16vectorIbNS_9allocatorIbEEE10__align_itB7v160006Em, symObjAddr: 0x547D4, symBinAddr: 0x100085C2C, symSize: 0x1C }
  - { offsetInCU: 0x17172, offset: 0x38905, size: 0x8, addend: 0x0, symName: __ZNSt3__16vectorIbNS_9allocatorIbEEE10__make_refB7v160006Em, symObjAddr: 0x547F0, symBinAddr: 0x100085C48, symSize: 0x268 }
  - { offsetInCU: 0x171A9, offset: 0x3893C, size: 0x8, addend: 0x0, symName: __ZNSt3__115__bit_referenceINS_6vectorIbNS_9allocatorIbEEEELb1EEC1B7v160006EPmm, symObjAddr: 0x54A58, symBinAddr: 0x100085EB0, symSize: 0x3C }
  - { offsetInCU: 0x171EF, offset: 0x38982, size: 0x8, addend: 0x0, symName: __ZNSt3__115__bit_referenceINS_6vectorIbNS_9allocatorIbEEEELb1EEC2B7v160006EPmm, symObjAddr: 0x54A94, symBinAddr: 0x100085EEC, symSize: 0xBC }
  - { offsetInCU: 0x17235, offset: 0x389C8, size: 0x8, addend: 0x0, symName: __ZNSt3__16vectorI8MOVE_IDXNS_9allocatorIS1_EEEC2B7v160006Ev, symObjAddr: 0x54B50, symBinAddr: 0x100085FA8, symSize: 0x2F4 }
  - { offsetInCU: 0x17260, offset: 0x389F3, size: 0x8, addend: 0x0, symName: __ZNSt3__117__compressed_pairIP8MOVE_IDXNS_9allocatorIS1_EEEC1B7v160006IDnNS_18__default_init_tagEEEOT_OT0_, symObjAddr: 0x54E44, symBinAddr: 0x10008629C, symSize: 0x3C }
  - { offsetInCU: 0x172B8, offset: 0x38A4B, size: 0x8, addend: 0x0, symName: __ZNSt3__117__compressed_pairIP8MOVE_IDXNS_9allocatorIS1_EEEC2B7v160006IDnNS_18__default_init_tagEEEOT_OT0_, symObjAddr: 0x54E90, symBinAddr: 0x1000862E8, symSize: 0x40 }
  - { offsetInCU: 0x17310, offset: 0x38AA3, size: 0x8, addend: 0x0, symName: __ZNSt3__122__compressed_pair_elemIP8MOVE_IDXLi0ELb0EEC2B7v160006IDnvEEOT_, symObjAddr: 0x54ED0, symBinAddr: 0x100086328, symSize: 0x64 }
  - { offsetInCU: 0x17352, offset: 0x38AE5, size: 0x8, addend: 0x0, symName: __ZNSt3__122__compressed_pair_elemINS_9allocatorI8MOVE_IDXEELi1ELb1EEC2B7v160006ENS_18__default_init_tagE, symObjAddr: 0x54F34, symBinAddr: 0x10008638C, symSize: 0x2C }
  - { offsetInCU: 0x17387, offset: 0x38B1A, size: 0x8, addend: 0x0, symName: __ZNSt3__19allocatorI8MOVE_IDXEC2B7v160006Ev, symObjAddr: 0x54F60, symBinAddr: 0x1000863B8, symSize: 0x2C }
  - { offsetInCU: 0x173B1, offset: 0x38B44, size: 0x8, addend: 0x0, symName: __ZNSt3__116__non_trivial_ifILb1ENS_9allocatorI8MOVE_IDXEEEC2B7v160006Ev, symObjAddr: 0x54F8C, symBinAddr: 0x1000863E4, symSize: 0x14 }
  - { offsetInCU: 0x173DB, offset: 0x38B6E, size: 0x8, addend: 0x0, symName: __ZNSt3__16vectorI8MOVE_IDXNS_9allocatorIS1_EEED2B7v160006Ev, symObjAddr: 0x54FA0, symBinAddr: 0x1000863F8, symSize: 0x1F8 }
  - { offsetInCU: 0x17406, offset: 0x38B99, size: 0x8, addend: 0x0, symName: __ZNSt3__16vectorI8MOVE_IDXNS_9allocatorIS1_EEE16__destroy_vectorC1ERS4_, symObjAddr: 0x55198, symBinAddr: 0x1000865F0, symSize: 0x34 }
  - { offsetInCU: 0x1743F, offset: 0x38BD2, size: 0x8, addend: 0x0, symName: __ZNSt3__16vectorI8MOVE_IDXNS_9allocatorIS1_EEE16__destroy_vectorclB7v160006Ev, symObjAddr: 0x551CC, symBinAddr: 0x100086624, symSize: 0x264 }
  - { offsetInCU: 0x17465, offset: 0x38BF8, size: 0x8, addend: 0x0, symName: __ZNSt3__16vectorI8MOVE_IDXNS_9allocatorIS1_EEE16__destroy_vectorC2ERS4_, symObjAddr: 0x55430, symBinAddr: 0x100086888, symSize: 0x70 }
  - { offsetInCU: 0x1749E, offset: 0x38C31, size: 0x8, addend: 0x0, symName: __ZNKSt3__16vectorI8MOVE_IDXNS_9allocatorIS1_EEE17__annotate_deleteB7v160006Ev, symObjAddr: 0x554A0, symBinAddr: 0x1000868F8, symSize: 0xCC }
  - { offsetInCU: 0x174C4, offset: 0x38C57, size: 0x8, addend: 0x0, symName: __ZNSt3__16vectorI8MOVE_IDXNS_9allocatorIS1_EEE7__clearB7v160006Ev, symObjAddr: 0x5557C, symBinAddr: 0x1000869D4, symSize: 0x64 }
  - { offsetInCU: 0x174EA, offset: 0x38C7D, size: 0x8, addend: 0x0, symName: __ZNSt3__116allocator_traitsINS_9allocatorI8MOVE_IDXEEE10deallocateB7v160006ERS3_PS2_m, symObjAddr: 0x555E0, symBinAddr: 0x100086A38, symSize: 0x34 }
  - { offsetInCU: 0x1752C, offset: 0x38CBF, size: 0x8, addend: 0x0, symName: __ZNSt3__16vectorI8MOVE_IDXNS_9allocatorIS1_EEE7__allocB7v160006Ev, symObjAddr: 0x55614, symBinAddr: 0x100086A6C, symSize: 0x28 }
  - { offsetInCU: 0x17552, offset: 0x38CE5, size: 0x8, addend: 0x0, symName: __ZNKSt3__16vectorI8MOVE_IDXNS_9allocatorIS1_EEE8capacityB7v160006Ev, symObjAddr: 0x5563C, symBinAddr: 0x100086A94, symSize: 0xBC }
  - { offsetInCU: 0x17578, offset: 0x38D0B, size: 0x8, addend: 0x0, symName: __ZNKSt3__16vectorI8MOVE_IDXNS_9allocatorIS1_EEE31__annotate_contiguous_containerEPKvS6_S6_S6_, symObjAddr: 0x556F8, symBinAddr: 0x100086B50, symSize: 0x58 }
  - { offsetInCU: 0x175DA, offset: 0x38D6D, size: 0x8, addend: 0x0, symName: __ZNKSt3__16vectorI8MOVE_IDXNS_9allocatorIS1_EEE4dataB7v160006Ev, symObjAddr: 0x55750, symBinAddr: 0x100086BA8, symSize: 0x64 }
  - { offsetInCU: 0x17600, offset: 0x38D93, size: 0x8, addend: 0x0, symName: __ZNSt3__16vectorI8MOVE_IDXNS_9allocatorIS1_EEE22__base_destruct_at_endB7v160006EPS1_, symObjAddr: 0x557C8, symBinAddr: 0x100086C20, symSize: 0x114 }
  - { offsetInCU: 0x17644, offset: 0x38DD7, size: 0x8, addend: 0x0, symName: __ZNSt3__116allocator_traitsINS_9allocatorI8MOVE_IDXEEE7destroyB7v160006IS2_vEEvRS3_PT_, symObjAddr: 0x558DC, symBinAddr: 0x100086D34, symSize: 0x2C }
  - { offsetInCU: 0x17681, offset: 0x38E14, size: 0x8, addend: 0x0, symName: __ZNSt3__19allocatorI8MOVE_IDXE7destroyB7v160006EPS1_, symObjAddr: 0x55908, symBinAddr: 0x100086D60, symSize: 0x14 }
  - { offsetInCU: 0x176B5, offset: 0x38E48, size: 0x8, addend: 0x0, symName: __ZNSt3__19allocatorI8MOVE_IDXE10deallocateB7v160006EPS1_m, symObjAddr: 0x5591C, symBinAddr: 0x100086D74, symSize: 0x4C }
  - { offsetInCU: 0x176F7, offset: 0x38E8A, size: 0x8, addend: 0x0, symName: __ZNSt3__117__compressed_pairIP8MOVE_IDXNS_9allocatorIS1_EEE6secondB7v160006Ev, symObjAddr: 0x55968, symBinAddr: 0x100086DC0, symSize: 0x24 }
  - { offsetInCU: 0x1771D, offset: 0x38EB0, size: 0x8, addend: 0x0, symName: __ZNSt3__122__compressed_pair_elemINS_9allocatorI8MOVE_IDXEELi1ELb1EE5__getB7v160006Ev, symObjAddr: 0x5598C, symBinAddr: 0x100086DE4, symSize: 0x14 }
  - { offsetInCU: 0x17743, offset: 0x38ED6, size: 0x8, addend: 0x0, symName: __ZNKSt3__16vectorI8MOVE_IDXNS_9allocatorIS1_EEE9__end_capB7v160006Ev, symObjAddr: 0x559A0, symBinAddr: 0x100086DF8, symSize: 0x28 }
  - { offsetInCU: 0x17769, offset: 0x38EFC, size: 0x8, addend: 0x0, symName: __ZNKSt3__117__compressed_pairIP8MOVE_IDXNS_9allocatorIS1_EEE5firstB7v160006Ev, symObjAddr: 0x559C8, symBinAddr: 0x100086E20, symSize: 0x24 }
  - { offsetInCU: 0x1778F, offset: 0x38F22, size: 0x8, addend: 0x0, symName: __ZNKSt3__122__compressed_pair_elemIP8MOVE_IDXLi0ELb0EE5__getB7v160006Ev, symObjAddr: 0x559EC, symBinAddr: 0x100086E44, symSize: 0x14 }
  - { offsetInCU: 0x177B5, offset: 0x38F48, size: 0x8, addend: 0x0, symName: __ZNSt3__16vectorI8MOVE_IDXNS_9allocatorIS1_EEE9__end_capB7v160006Ev, symObjAddr: 0x55A00, symBinAddr: 0x100086E58, symSize: 0x28 }
  - { offsetInCU: 0x177DB, offset: 0x38F6E, size: 0x8, addend: 0x0, symName: __ZNSt3__16vectorI8MOVE_IDXNS_9allocatorIS1_EEE22__construct_one_at_endB7v160006IJRKS1_EEEvDpOT_, symObjAddr: 0x55A28, symBinAddr: 0x100086E80, symSize: 0x36C }
  - { offsetInCU: 0x17830, offset: 0x38FC3, size: 0x8, addend: 0x0, symName: __ZNSt3__16vectorI8MOVE_IDXNS_9allocatorIS1_EEE21__push_back_slow_pathIRKS1_EEvOT_, symObjAddr: 0x55D94, symBinAddr: 0x1000871EC, symSize: 0x3C0 }
  - { offsetInCU: 0x17895, offset: 0x39028, size: 0x8, addend: 0x0, symName: __ZNSt3__117__compressed_pairIP8MOVE_IDXNS_9allocatorIS1_EEE5firstB7v160006Ev, symObjAddr: 0x56154, symBinAddr: 0x1000875AC, symSize: 0x24 }
  - { offsetInCU: 0x178BB, offset: 0x3904E, size: 0x8, addend: 0x0, symName: __ZNSt3__122__compressed_pair_elemIP8MOVE_IDXLi0ELb0EE5__getB7v160006Ev, symObjAddr: 0x56178, symBinAddr: 0x1000875D0, symSize: 0x14 }
  - { offsetInCU: 0x178FA, offset: 0x3908D, size: 0x8, addend: 0x0, symName: __ZNSt3__16vectorI8MOVE_IDXNS_9allocatorIS1_EEE21_ConstructTransactionC1B7v160006ERS4_m, symObjAddr: 0x5618C, symBinAddr: 0x1000875E4, symSize: 0x3C }
  - { offsetInCU: 0x17942, offset: 0x390D5, size: 0x8, addend: 0x0, symName: __ZNSt3__116allocator_traitsINS_9allocatorI8MOVE_IDXEEE9constructB7v160006IS2_JRKS2_EvEEvRS3_PT_DpOT0_, symObjAddr: 0x561C8, symBinAddr: 0x100087620, symSize: 0x34 }
  - { offsetInCU: 0x17999, offset: 0x3912C, size: 0x8, addend: 0x0, symName: __ZNSt3__16vectorI8MOVE_IDXNS_9allocatorIS1_EEE21_ConstructTransactionD1B7v160006Ev, symObjAddr: 0x561FC, symBinAddr: 0x100087654, symSize: 0x2C }
  - { offsetInCU: 0x179C3, offset: 0x39156, size: 0x8, addend: 0x0, symName: __ZNSt3__16vectorI8MOVE_IDXNS_9allocatorIS1_EEE21_ConstructTransactionC2B7v160006ERS4_m, symObjAddr: 0x56228, symBinAddr: 0x100087680, symSize: 0x1D0 }
  - { offsetInCU: 0x17A0B, offset: 0x3919E, size: 0x8, addend: 0x0, symName: __ZNKSt3__16vectorI8MOVE_IDXNS_9allocatorIS1_EEE19__annotate_increaseB7v160006Em, symObjAddr: 0x563F8, symBinAddr: 0x100087850, symSize: 0xD8 }
  - { offsetInCU: 0x17A40, offset: 0x391D3, size: 0x8, addend: 0x0, symName: __ZNSt3__19allocatorI8MOVE_IDXE9constructB7v160006IS1_JRKS1_EEEvPT_DpOT0_, symObjAddr: 0x564D0, symBinAddr: 0x100087928, symSize: 0x34 }
  - { offsetInCU: 0x17A96, offset: 0x39229, size: 0x8, addend: 0x0, symName: __ZNSt3__16vectorI8MOVE_IDXNS_9allocatorIS1_EEE21_ConstructTransactionD2B7v160006Ev, symObjAddr: 0x56504, symBinAddr: 0x10008795C, symSize: 0x278 }
  - { offsetInCU: 0x17AC0, offset: 0x39253, size: 0x8, addend: 0x0, symName: __ZNKSt3__16vectorI8MOVE_IDXNS_9allocatorIS1_EEE17__annotate_shrinkB7v160006Em, symObjAddr: 0x5677C, symBinAddr: 0x100087BD4, symSize: 0xC8 }
  - { offsetInCU: 0x17AF5, offset: 0x39288, size: 0x8, addend: 0x0, symName: __ZNKSt3__16vectorI8MOVE_IDXNS_9allocatorIS1_EEE11__recommendB7v160006Em, symObjAddr: 0x56844, symBinAddr: 0x100087C9C, symSize: 0x384 }
  - { offsetInCU: 0x17B51, offset: 0x392E4, size: 0x8, addend: 0x0, symName: __ZNSt3__114__split_bufferI8MOVE_IDXRNS_9allocatorIS1_EEEC1EmmS4_, symObjAddr: 0x56BC8, symBinAddr: 0x100088020, symSize: 0x44 }
  - { offsetInCU: 0x17BA7, offset: 0x3933A, size: 0x8, addend: 0x0, symName: __ZNSt3__114__split_bufferI8MOVE_IDXRNS_9allocatorIS1_EEED1Ev, symObjAddr: 0x57180, symBinAddr: 0x1000885D8, symSize: 0x2C }
  - { offsetInCU: 0x17BD3, offset: 0x39366, size: 0x8, addend: 0x0, symName: __ZNKSt3__16vectorI8MOVE_IDXNS_9allocatorIS1_EEE8max_sizeEv, symObjAddr: 0x571AC, symBinAddr: 0x100088604, symSize: 0x2FC }
  - { offsetInCU: 0x17BFC, offset: 0x3938F, size: 0x8, addend: 0x0, symName: __ZNKSt3__16vectorI8MOVE_IDXNS_9allocatorIS1_EEE20__throw_length_errorB7v160006Ev, symObjAddr: 0x574A8, symBinAddr: 0x100088900, symSize: 0x20 }
  - { offsetInCU: 0x17C2C, offset: 0x393BF, size: 0x8, addend: 0x0, symName: __ZNSt3__116allocator_traitsINS_9allocatorI8MOVE_IDXEEE8max_sizeB7v160006IS3_vEEmRKS3_, symObjAddr: 0x574C8, symBinAddr: 0x100088920, symSize: 0x24 }
  - { offsetInCU: 0x17C5A, offset: 0x393ED, size: 0x8, addend: 0x0, symName: __ZNKSt3__16vectorI8MOVE_IDXNS_9allocatorIS1_EEE7__allocB7v160006Ev, symObjAddr: 0x574EC, symBinAddr: 0x100088944, symSize: 0x28 }
  - { offsetInCU: 0x17C80, offset: 0x39413, size: 0x8, addend: 0x0, symName: __ZNKSt3__19allocatorI8MOVE_IDXE8max_sizeB7v160006Ev, symObjAddr: 0x57514, symBinAddr: 0x10008896C, symSize: 0x14 }
  - { offsetInCU: 0x17CA6, offset: 0x39439, size: 0x8, addend: 0x0, symName: __ZNKSt3__117__compressed_pairIP8MOVE_IDXNS_9allocatorIS1_EEE6secondB7v160006Ev, symObjAddr: 0x57528, symBinAddr: 0x100088980, symSize: 0x24 }
  - { offsetInCU: 0x17CCC, offset: 0x3945F, size: 0x8, addend: 0x0, symName: __ZNKSt3__122__compressed_pair_elemINS_9allocatorI8MOVE_IDXEELi1ELb1EE5__getB7v160006Ev, symObjAddr: 0x5754C, symBinAddr: 0x1000889A4, symSize: 0x14 }
  - { offsetInCU: 0x17CF2, offset: 0x39485, size: 0x8, addend: 0x0, symName: __ZNSt3__114__split_bufferI8MOVE_IDXRNS_9allocatorIS1_EEEC2EmmS4_, symObjAddr: 0x57560, symBinAddr: 0x1000889B8, symSize: 0x520 }
  - { offsetInCU: 0x17D6D, offset: 0x39500, size: 0x8, addend: 0x0, symName: __ZNSt3__117__compressed_pairIP8MOVE_IDXRNS_9allocatorIS1_EEEC1B7v160006IDnS5_EEOT_OT0_, symObjAddr: 0x57A80, symBinAddr: 0x100088ED8, symSize: 0x3C }
  - { offsetInCU: 0x17DC5, offset: 0x39558, size: 0x8, addend: 0x0, symName: __ZNSt3__114__split_bufferI8MOVE_IDXRNS_9allocatorIS1_EEE7__allocB7v160006Ev, symObjAddr: 0x57D48, symBinAddr: 0x1000891A0, symSize: 0x28 }
  - { offsetInCU: 0x17DEB, offset: 0x3957E, size: 0x8, addend: 0x0, symName: __ZNSt3__114__split_bufferI8MOVE_IDXRNS_9allocatorIS1_EEE9__end_capB7v160006Ev, symObjAddr: 0x57D70, symBinAddr: 0x1000891C8, symSize: 0x28 }
  - { offsetInCU: 0x17E11, offset: 0x395A4, size: 0x8, addend: 0x0, symName: __ZNSt3__117__compressed_pairIP8MOVE_IDXRNS_9allocatorIS1_EEEC2B7v160006IDnS5_EEOT_OT0_, symObjAddr: 0x57D98, symBinAddr: 0x1000891F0, symSize: 0x48 }
  - { offsetInCU: 0x17E69, offset: 0x395FC, size: 0x8, addend: 0x0, symName: __ZNSt3__122__compressed_pair_elemIRNS_9allocatorI8MOVE_IDXEELi1ELb0EEC2B7v160006IS4_vEEOT_, symObjAddr: 0x57DE0, symBinAddr: 0x100089238, symSize: 0x70 }
  - { offsetInCU: 0x17EAB, offset: 0x3963E, size: 0x8, addend: 0x0, symName: __ZNSt3__19allocatorI8MOVE_IDXE8allocateB7v160006Em, symObjAddr: 0x57E50, symBinAddr: 0x1000892A8, symSize: 0x5C }
  - { offsetInCU: 0x17EDF, offset: 0x39672, size: 0x8, addend: 0x0, symName: __ZNSt3__117__compressed_pairIP8MOVE_IDXRNS_9allocatorIS1_EEE6secondB7v160006Ev, symObjAddr: 0x57EAC, symBinAddr: 0x100089304, symSize: 0x28 }
  - { offsetInCU: 0x17F05, offset: 0x39698, size: 0x8, addend: 0x0, symName: __ZNSt3__122__compressed_pair_elemIRNS_9allocatorI8MOVE_IDXEELi1ELb0EE5__getB7v160006Ev, symObjAddr: 0x57ED4, symBinAddr: 0x10008932C, symSize: 0x60 }
  - { offsetInCU: 0x17F2B, offset: 0x396BE, size: 0x8, addend: 0x0, symName: __ZNSt3__117__compressed_pairIP8MOVE_IDXRNS_9allocatorIS1_EEE5firstB7v160006Ev, symObjAddr: 0x57F34, symBinAddr: 0x10008938C, symSize: 0x24 }
  - { offsetInCU: 0x17F51, offset: 0x396E4, size: 0x8, addend: 0x0, symName: __ZNSt3__116reverse_iteratorIP8MOVE_IDXEC1B7v160006ES2_, symObjAddr: 0x58400, symBinAddr: 0x100089858, symSize: 0x34 }
  - { offsetInCU: 0x17F89, offset: 0x3971C, size: 0x8, addend: 0x0, symName: __ZNKSt3__116reverse_iteratorIP8MOVE_IDXE4baseB7v160006Ev, symObjAddr: 0x58434, symBinAddr: 0x10008988C, symSize: 0x64 }
  - { offsetInCU: 0x17FAF, offset: 0x39742, size: 0x8, addend: 0x0, symName: __ZNKSt3__16vectorI8MOVE_IDXNS_9allocatorIS1_EEE14__annotate_newB7v160006Em, symObjAddr: 0x585CC, symBinAddr: 0x100089A24, symSize: 0xC0 }
  - { offsetInCU: 0x17FFD, offset: 0x39790, size: 0x8, addend: 0x0, symName: __ZNKSt3__111__move_loopINS_17_ClassicAlgPolicyEEclB7v160006INS_16reverse_iteratorIP8MOVE_IDXEES7_S7_EENS_4pairIT_T1_EES9_T0_SA_, symObjAddr: 0x5A05C, symBinAddr: 0x10008B4B4, symSize: 0x344 }
  - { offsetInCU: 0x1807A, offset: 0x3980D, size: 0x8, addend: 0x0, symName: __ZNSt3__18_IterOpsINS_17_ClassicAlgPolicyEE11__iter_moveB7v160006IRNS_16reverse_iteratorIP8MOVE_IDXEEEENS_9enable_ifIXsr12is_referenceIDTdeclsr3stdE7declvalIRT_EEEEE5valueEDTclsr3stdE4movedeclsr3stdE7declvalISB_EEEEE4typeEOSA_, symObjAddr: 0x5AEC8, symBinAddr: 0x10008C320, symSize: 0x28 }
  - { offsetInCU: 0x180A6, offset: 0x39839, size: 0x8, addend: 0x0, symName: __ZNKSt3__116reverse_iteratorIP8MOVE_IDXEdeB7v160006Ev, symObjAddr: 0x5AEF0, symBinAddr: 0x10008C348, symSize: 0x74 }
  - { offsetInCU: 0x180DB, offset: 0x3986E, size: 0x8, addend: 0x0, symName: __ZNSt3__116reverse_iteratorIP8MOVE_IDXEppB7v160006Ev, symObjAddr: 0x5AF64, symBinAddr: 0x10008C3BC, symSize: 0x6C }
  - { offsetInCU: 0x18101, offset: 0x39894, size: 0x8, addend: 0x0, symName: __ZNSt3__18_IterOpsINS_17_ClassicAlgPolicyEE25__validate_iter_referenceB7v160006IRNS_16reverse_iteratorIP8MOVE_IDXEEEEvv, symObjAddr: 0x5AFD0, symBinAddr: 0x10008C428, symSize: 0x4 }
  - { offsetInCU: 0x1811F, offset: 0x398B2, size: 0x8, addend: 0x0, symName: __ZNSt3__118__unwrap_iter_implINS_16reverse_iteratorIP8MOVE_IDXEELb0EE8__unwrapB7v160006ES4_, symObjAddr: 0x5AFD4, symBinAddr: 0x10008C42C, symSize: 0x274 }
  - { offsetInCU: 0x1814B, offset: 0x398DE, size: 0x8, addend: 0x0, symName: __ZNSt3__14pairINS_16reverse_iteratorIP8MOVE_IDXEES4_EC1B7v160006IS4_S4_LPv0EEEOT_OT0_, symObjAddr: 0x5B248, symBinAddr: 0x10008C6A0, symSize: 0x3C }
  - { offsetInCU: 0x181AA, offset: 0x3993D, size: 0x8, addend: 0x0, symName: __ZNSt3__14pairINS_16reverse_iteratorIP8MOVE_IDXEES4_EC2B7v160006IS4_S4_LPv0EEEOT_OT0_, symObjAddr: 0x5B284, symBinAddr: 0x10008C6DC, symSize: 0x54 }
  - { offsetInCU: 0x18209, offset: 0x3999C, size: 0x8, addend: 0x0, symName: __ZNSt3__118__unwrap_iter_implINS_16reverse_iteratorIP8MOVE_IDXEELb0EE8__rewrapB7v160006ES4_S4_, symObjAddr: 0x5B2D8, symBinAddr: 0x10008C730, symSize: 0x2E0 }
  - { offsetInCU: 0x1823F, offset: 0x399D2, size: 0x8, addend: 0x0, symName: __ZNSt3__116reverse_iteratorIP8MOVE_IDXEC2B7v160006ES2_, symObjAddr: 0x5B5B8, symBinAddr: 0x10008CA10, symSize: 0xB8 }
  - { offsetInCU: 0x18277, offset: 0x39A0A, size: 0x8, addend: 0x0, symName: __ZNSt3__114__split_bufferI8MOVE_IDXRNS_9allocatorIS1_EEED2Ev, symObjAddr: 0x5B670, symBinAddr: 0x10008CAC8, symSize: 0x104 }
  - { offsetInCU: 0x182A3, offset: 0x39A36, size: 0x8, addend: 0x0, symName: __ZNSt3__114__split_bufferI8MOVE_IDXRNS_9allocatorIS1_EEE5clearB7v160006Ev, symObjAddr: 0x5B774, symBinAddr: 0x10008CBCC, symSize: 0x68 }
  - { offsetInCU: 0x182C9, offset: 0x39A5C, size: 0x8, addend: 0x0, symName: __ZNKSt3__114__split_bufferI8MOVE_IDXRNS_9allocatorIS1_EEE8capacityB7v160006Ev, symObjAddr: 0x5B7DC, symBinAddr: 0x10008CC34, symSize: 0xBC }
  - { offsetInCU: 0x182EF, offset: 0x39A82, size: 0x8, addend: 0x0, symName: __ZNSt3__114__split_bufferI8MOVE_IDXRNS_9allocatorIS1_EEE17__destruct_at_endB7v160006EPS1_, symObjAddr: 0x5B898, symBinAddr: 0x10008CCF0, symSize: 0x2C }
  - { offsetInCU: 0x18323, offset: 0x39AB6, size: 0x8, addend: 0x0, symName: __ZNSt3__114__split_bufferI8MOVE_IDXRNS_9allocatorIS1_EEE17__destruct_at_endB7v160006EPS1_NS_17integral_constantIbLb0EEE, symObjAddr: 0x5B8C4, symBinAddr: 0x10008CD1C, symSize: 0x10C }
  - { offsetInCU: 0x18364, offset: 0x39AF7, size: 0x8, addend: 0x0, symName: __ZNKSt3__114__split_bufferI8MOVE_IDXRNS_9allocatorIS1_EEE9__end_capB7v160006Ev, symObjAddr: 0x5B9D0, symBinAddr: 0x10008CE28, symSize: 0x28 }
  - { offsetInCU: 0x1838A, offset: 0x39B1D, size: 0x8, addend: 0x0, symName: __ZNKSt3__117__compressed_pairIP8MOVE_IDXRNS_9allocatorIS1_EEE5firstB7v160006Ev, symObjAddr: 0x5B9F8, symBinAddr: 0x10008CE50, symSize: 0x24 }
  - { offsetInCU: 0x183B0, offset: 0x39B43, size: 0x8, addend: 0x0, symName: __ZNSt3__116reverse_iteratorINS_11__wrap_iterIP8MOVE_IDXEEEC1B7v160006ES4_, symObjAddr: 0x5BA1C, symBinAddr: 0x10008CE74, symSize: 0x238 }
  - { offsetInCU: 0x183ED, offset: 0x39B80, size: 0x8, addend: 0x0, symName: __ZNSt3__116reverse_iteratorINS_11__wrap_iterIP8MOVE_IDXEEEC2B7v160006ES4_, symObjAddr: 0x5BC54, symBinAddr: 0x10008D0AC, symSize: 0x21C }
  - { offsetInCU: 0x18439, offset: 0x39BCC, size: 0x8, addend: 0x0, symName: __ZNSt3__116_UnwrapAlgPolicyIRNS_6__lessI8MOVE_IDXS2_EEE10__get_compB7v160006ES4_, symObjAddr: 0x5D2E8, symBinAddr: 0x10008E6EC, symSize: 0x14 }
  - { offsetInCU: 0x1845C, offset: 0x39BEF, size: 0x8, addend: 0x0, symName: __ZNKSt3__116reverse_iteratorINS_11__wrap_iterIP8MOVE_IDXEEE4baseB7v160006Ev, symObjAddr: 0x5EF20, symBinAddr: 0x100090308, symSize: 0x200 }
  - { offsetInCU: 0x18483, offset: 0x39C16, size: 0x8, addend: 0x0, symName: __ZNKSt3__111__wrap_iterIP8MOVE_IDXE4baseB7v160006Ev, symObjAddr: 0x5F120, symBinAddr: 0x100090508, symSize: 0x60 }
  - { offsetInCU: 0x184A9, offset: 0x39C3C, size: 0x8, addend: 0x0, symName: __ZNKSt3__16__lessI8MOVE_IDXS1_EclB7v160006ERKS1_S4_, symObjAddr: 0x5F180, symBinAddr: 0x100090568, symSize: 0x34 }
  - { offsetInCU: 0x184EB, offset: 0x39C7E, size: 0x8, addend: 0x0, symName: __ZNSt3__116reverse_iteratorINS_11__wrap_iterIP8MOVE_IDXEEEmmB7v160006Ev, symObjAddr: 0x5F1B4, symBinAddr: 0x10009059C, symSize: 0x30 }
  - { offsetInCU: 0x18511, offset: 0x39CA4, size: 0x8, addend: 0x0, symName: __ZNKSt3__116reverse_iteratorINS_11__wrap_iterIP8MOVE_IDXEEEdeB7v160006Ev, symObjAddr: 0x5F1E4, symBinAddr: 0x1000905CC, symSize: 0x1EC }
  - { offsetInCU: 0x1854B, offset: 0x39CDE, size: 0x8, addend: 0x0, symName: __ZNSt3__18_IterOpsINS_17_ClassicAlgPolicyEE9iter_swapB7v160006IRNS_16reverse_iteratorINS_11__wrap_iterIP8MOVE_IDXEEEESA_EEvOT_OT0_, symObjAddr: 0x5F3D0, symBinAddr: 0x1000907B8, symSize: 0x28C }
  - { offsetInCU: 0x18590, offset: 0x39D23, size: 0x8, addend: 0x0, symName: __ZNKSt3__116reverse_iteratorINS_11__wrap_iterIP8MOVE_IDXEEEplB7v160006El, symObjAddr: 0x5FA90, symBinAddr: 0x100090E78, symSize: 0x2CC }
  - { offsetInCU: 0x185C6, offset: 0x39D59, size: 0x8, addend: 0x0, symName: __ZNSt3__116reverse_iteratorINS_11__wrap_iterIP8MOVE_IDXEEEpLB7v160006El, symObjAddr: 0x61648, symBinAddr: 0x100092A30, symSize: 0x38 }
  - { offsetInCU: 0x185FA, offset: 0x39D8D, size: 0x8, addend: 0x0, symName: __ZNSt3__116reverse_iteratorINS_11__wrap_iterIP8MOVE_IDXEEEppB7v160006Ev, symObjAddr: 0x623C8, symBinAddr: 0x1000937B0, symSize: 0x30 }
  - { offsetInCU: 0x18620, offset: 0x39DB3, size: 0x8, addend: 0x0, symName: __ZNK8MOVE_IDXltERKS_, symObjAddr: 0x63E64, symBinAddr: 0x10009524C, symSize: 0x108 }
  - { offsetInCU: 0x18655, offset: 0x39DE8, size: 0x8, addend: 0x0, symName: __ZNSt3__111__wrap_iterIP8MOVE_IDXEppB7v160006Ev, symObjAddr: 0x63F6C, symBinAddr: 0x100095354, symSize: 0x68 }
  - { offsetInCU: 0x1867B, offset: 0x39E0E, size: 0x8, addend: 0x0, symName: __ZNSt3__111__wrap_iterIP8MOVE_IDXEmmB7v160006Ev, symObjAddr: 0x63FD4, symBinAddr: 0x1000953BC, symSize: 0x68 }
  - { offsetInCU: 0x186A1, offset: 0x39E34, size: 0x8, addend: 0x0, symName: __ZNKSt3__111__wrap_iterIP8MOVE_IDXEdeB7v160006Ev, symObjAddr: 0x6403C, symBinAddr: 0x100095424, symSize: 0x60 }
  - { offsetInCU: 0x186C7, offset: 0x39E5A, size: 0x8, addend: 0x0, symName: __ZNKSt3__111__wrap_iterIP8MOVE_IDXEmiB7v160006El, symObjAddr: 0x64524, symBinAddr: 0x10009590C, symSize: 0x244 }
  - { offsetInCU: 0x186FD, offset: 0x39E90, size: 0x8, addend: 0x0, symName: __ZNKSt3__111__wrap_iterIP8MOVE_IDXEplB7v160006El, symObjAddr: 0x64768, symBinAddr: 0x100095B50, symSize: 0x20C }
  - { offsetInCU: 0x18746, offset: 0x39ED9, size: 0x8, addend: 0x0, symName: __ZNSt3__111__wrap_iterIP8MOVE_IDXEpLB7v160006El, symObjAddr: 0x64974, symBinAddr: 0x100095D5C, symSize: 0x78 }
  - { offsetInCU: 0x1877A, offset: 0x39F0D, size: 0x8, addend: 0x0, symName: __ZNSt3__18_IterOpsINS_17_ClassicAlgPolicyEE11__iter_moveB7v160006IRNS_16reverse_iteratorINS_11__wrap_iterIP8MOVE_IDXEEEEEENS_9enable_ifIXsr12is_referenceIDTdeclsr3stdE7declvalIRT_EEEEE5valueEDTclsr3stdE4movedeclsr3stdE7declvalISD_EEEEE4typeEOSC_, symObjAddr: 0x64F9C, symBinAddr: 0x100096384, symSize: 0x28 }
  - { offsetInCU: 0x187A6, offset: 0x39F39, size: 0x8, addend: 0x0, symName: __ZNSt3__18_IterOpsINS_17_ClassicAlgPolicyEE25__validate_iter_referenceB7v160006IRNS_16reverse_iteratorINS_11__wrap_iterIP8MOVE_IDXEEEEEEvv, symObjAddr: 0x64FC4, symBinAddr: 0x1000963AC, symSize: 0x4 }
  - { offsetInCU: 0x187C4, offset: 0x39F57, size: 0x8, addend: 0x0, symName: __ZNSt3__18_IterOpsINS_17_ClassicAlgPolicyEE4nextB7v160006INS_16reverse_iteratorINS_11__wrap_iterIP8MOVE_IDXEEEEEET_SA_SA_, symObjAddr: 0x64FC8, symBinAddr: 0x1000963B0, symSize: 0x2E0 }
  - { offsetInCU: 0x18803, offset: 0x39F96, size: 0x8, addend: 0x0, symName: __ZNSt3__111__wrap_iterIP8MOVE_IDXEmIB7v160006El, symObjAddr: 0x67914, symBinAddr: 0x100098CFC, symSize: 0x3C }
  - { offsetInCU: 0x18837, offset: 0x39FCA, size: 0x8, addend: 0x0, symName: __ZNSt3__118__unwrap_iter_implINS_16reverse_iteratorINS_11__wrap_iterIP8MOVE_IDXEEEELb0EE8__unwrapB7v160006ES6_, symObjAddr: 0x68148, symBinAddr: 0x100099530, symSize: 0x274 }
  - { offsetInCU: 0x1885E, offset: 0x39FF1, size: 0x8, addend: 0x0, symName: __ZNSt3__16vectorI8MOVE_IDXNS_9allocatorIS1_EEE11__make_iterB7v160006EPS1_, symObjAddr: 0x683BC, symBinAddr: 0x1000997A4, symSize: 0x200 }
  - { offsetInCU: 0x18895, offset: 0x3A028, size: 0x8, addend: 0x0, symName: __ZNSt3__111__wrap_iterIP8MOVE_IDXEC1B7v160006EPKvS2_, symObjAddr: 0x685BC, symBinAddr: 0x1000999A4, symSize: 0x3C }
  - { offsetInCU: 0x188DB, offset: 0x3A06E, size: 0x8, addend: 0x0, symName: __ZNSt3__111__wrap_iterIP8MOVE_IDXEC2B7v160006EPKvS2_, symObjAddr: 0x685F8, symBinAddr: 0x1000999E0, symSize: 0x74 }
  - { offsetInCU: 0x18921, offset: 0x3A0B4, size: 0x8, addend: 0x0, symName: __ZNSt3__18_IterOpsINS_17_ClassicAlgPolicyEE9iter_swapB7v160006IRP8MOVE_IDXS6_EEvOT_OT0_, symObjAddr: 0x6B1F0, symBinAddr: 0x10009C5D8, symSize: 0xB0 }
  - { offsetInCU: 0x18964, offset: 0x3A0F7, size: 0x8, addend: 0x0, symName: __ZNSt3__18_IterOpsINS_17_ClassicAlgPolicyEE11__iter_moveB7v160006IRP8MOVE_IDXEENS_9enable_ifIXsr12is_referenceIDTdeclsr3stdE7declvalIRT_EEEEE5valueEDTclsr3stdE4movedeclsr3stdE7declvalIS9_EEEEE4typeEOS8_, symObjAddr: 0x6D294, symBinAddr: 0x10009E67C, symSize: 0x6C }
  - { offsetInCU: 0x18990, offset: 0x3A123, size: 0x8, addend: 0x0, symName: __ZNSt3__18_IterOpsINS_17_ClassicAlgPolicyEE25__validate_iter_referenceB7v160006IRP8MOVE_IDXEEvv, symObjAddr: 0x6D300, symBinAddr: 0x10009E6E8, symSize: 0x4 }
  - { offsetInCU: 0x189AE, offset: 0x3A141, size: 0x8, addend: 0x0, symName: __ZNSt3__18_IterOpsINS_17_ClassicAlgPolicyEE4nextB7v160006IP8MOVE_IDXEET_S6_S6_, symObjAddr: 0x6D304, symBinAddr: 0x10009E6EC, symSize: 0x18 }
  - { offsetInCU: 0x189E5, offset: 0x3A178, size: 0x8, addend: 0x0, symName: __ZNSt3__118__unwrap_iter_implINS_11__wrap_iterIP8MOVE_IDXEELb1EE8__unwrapB7v160006ES4_, symObjAddr: 0x6F62C, symBinAddr: 0x1000A0A14, symSize: 0x1F0 }
  - { offsetInCU: 0x18A16, offset: 0x3A1A9, size: 0x8, addend: 0x0, symName: __ZNSt3__119__to_address_helperINS_11__wrap_iterIP8MOVE_IDXEEvE6__callB7v160006ERKS4_, symObjAddr: 0x6F840, symBinAddr: 0x1000A0C28, symSize: 0x200 }
  - { offsetInCU: 0x18A3A, offset: 0x3A1CD, size: 0x8, addend: 0x0, symName: __ZNSt3__114pointer_traitsINS_11__wrap_iterIP8MOVE_IDXEEE10to_addressB7v160006ES4_, symObjAddr: 0x6FA40, symBinAddr: 0x1000A0E28, symSize: 0x1F4 }
...
